
CodeCracker.elf:     file format elf32-littlenios2
CodeCracker.elf
architecture: nios2:r1, flags 0x00000112:
EXEC_P, HAS_SYMS, D_PAGED
start address 0x00010180

Program Header:
    LOAD off    0x00001000 vaddr 0x00010000 paddr 0x00010000 align 2**12
         filesz 0x00000020 memsz 0x00000020 flags r-x
    LOAD off    0x00001020 vaddr 0x00010020 paddr 0x00010020 align 2**12
         filesz 0x00001870 memsz 0x00001870 flags r-x
    LOAD off    0x00002890 vaddr 0x00011890 paddr 0x00011948 align 2**12
         filesz 0x000000b8 memsz 0x000000b8 flags rw-
    LOAD off    0x00002a00 vaddr 0x00011a00 paddr 0x00011a00 align 2**12
         filesz 0x00000000 memsz 0x000001a4 flags rw-

Sections:
Idx Name          Size      VMA       LMA       File off  Algn
  0 .entry        00000020  00010000  00010000  00001000  2**5
                  CONTENTS, ALLOC, LOAD, READONLY, CODE
  1 .exceptions   00000160  00010020  00010020  00001020  2**2
                  CONTENTS, ALLOC, LOAD, READONLY, CODE
  2 .text         00001574  00010180  00010180  00001180  2**2
                  CONTENTS, ALLOC, LOAD, READONLY, CODE
  3 .rodata       0000019c  000116f4  000116f4  000026f4  2**2
                  CONTENTS, ALLOC, LOAD, READONLY, DATA
  4 .rwdata       000000b8  00011890  00011948  00002890  2**2
                  CONTENTS, ALLOC, LOAD, DATA, SMALL_DATA
  5 .bss          000001a4  00011a00  00011a00  00002a00  2**2
                  ALLOC, SMALL_DATA
  6 .onchip_memory 00000000  00011ba4  00011ba4  00002948  2**0
                  CONTENTS
  7 .comment      00000023  00000000  00000000  00002948  2**0
                  CONTENTS, READONLY
  8 .debug_aranges 00000400  00000000  00000000  00002970  2**3
                  CONTENTS, READONLY, DEBUGGING
  9 .debug_info   00003b25  00000000  00000000  00002d70  2**0
                  CONTENTS, READONLY, DEBUGGING
 10 .debug_abbrev 000019fa  00000000  00000000  00006895  2**0
                  CONTENTS, READONLY, DEBUGGING
 11 .debug_line   00001b4f  00000000  00000000  0000828f  2**0
                  CONTENTS, READONLY, DEBUGGING
 12 .debug_frame  00000554  00000000  00000000  00009de0  2**2
                  CONTENTS, READONLY, DEBUGGING
 13 .debug_str    00001630  00000000  00000000  0000a334  2**0
                  CONTENTS, READONLY, DEBUGGING
 14 .debug_loc    00001c11  00000000  00000000  0000b964  2**0
                  CONTENTS, READONLY, DEBUGGING
 15 .debug_alt_sim_info 00000010  00000000  00000000  0000d578  2**2
                  CONTENTS, READONLY, DEBUGGING
 16 .debug_ranges 00000428  00000000  00000000  0000d588  2**3
                  CONTENTS, READONLY, DEBUGGING
 17 .thread_model 00000003  00000000  00000000  0000f082  2**0
                  CONTENTS, READONLY
 18 .cpu          00000003  00000000  00000000  0000f085  2**0
                  CONTENTS, READONLY
 19 .qsys         00000001  00000000  00000000  0000f088  2**0
                  CONTENTS, READONLY
 20 .simulation_enabled 00000001  00000000  00000000  0000f089  2**0
                  CONTENTS, READONLY
 21 .sysid_hash   00000004  00000000  00000000  0000f08a  2**0
                  CONTENTS, READONLY
 22 .sysid_base   00000004  00000000  00000000  0000f08e  2**0
                  CONTENTS, READONLY
 23 .sysid_time   00000004  00000000  00000000  0000f092  2**0
                  CONTENTS, READONLY
 24 .stderr_dev   00000009  00000000  00000000  0000f096  2**0
                  CONTENTS, READONLY
 25 .stdin_dev    00000009  00000000  00000000  0000f09f  2**0
                  CONTENTS, READONLY
 26 .stdout_dev   00000009  00000000  00000000  0000f0a8  2**0
                  CONTENTS, READONLY
 27 .sopc_system_name 0000000b  00000000  00000000  0000f0b1  2**0
                  CONTENTS, READONLY
 28 .quartus_project_dir 0000005a  00000000  00000000  0000f0bc  2**0
                  CONTENTS, READONLY
 29 .jdi          00004920  00000000  00000000  0000f116  2**0
                  CONTENTS, READONLY
 30 .sopcinfo     00078340  00000000  00000000  00013a36  2**0
                  CONTENTS, READONLY
SYMBOL TABLE:
00010000 l    d  .entry	00000000 .entry
00010020 l    d  .exceptions	00000000 .exceptions
00010180 l    d  .text	00000000 .text
000116f4 l    d  .rodata	00000000 .rodata
00011890 l    d  .rwdata	00000000 .rwdata
00011a00 l    d  .bss	00000000 .bss
00011ba4 l    d  .onchip_memory	00000000 .onchip_memory
00000000 l    d  .comment	00000000 .comment
00000000 l    d  .debug_aranges	00000000 .debug_aranges
00000000 l    d  .debug_info	00000000 .debug_info
00000000 l    d  .debug_abbrev	00000000 .debug_abbrev
00000000 l    d  .debug_line	00000000 .debug_line
00000000 l    d  .debug_frame	00000000 .debug_frame
00000000 l    d  .debug_str	00000000 .debug_str
00000000 l    d  .debug_loc	00000000 .debug_loc
00000000 l    d  .debug_alt_sim_info	00000000 .debug_alt_sim_info
00000000 l    d  .debug_ranges	00000000 .debug_ranges
00000000 l    df *ABS*	00000000 ../CodeCracker_bsp//obj/HAL/src/crt0.o
000101b8 l       .text	00000000 alt_after_alt_main
00000000 l    df *ABS*	00000000 alt_irq_handler.c
00000000 l    df *ABS*	00000000 alt_instruction_exception_entry.c
00000000 l    df *ABS*	00000000 hello_world_small.c
00011a2c l     O .bss	00000078 xv.3317
0001170c l     O .rodata	00000078 h.3315
00000000 l    df *ABS*	00000000 addsf3.c
00000000 l    df *ABS*	00000000 mulsf3.c
00000000 l    df *ABS*	00000000 fixsfsi.c
00000000 l    df *ABS*	00000000 floatsisf.c
00000000 l    df *ABS*	00000000 libgcc2.c
00000000 l    df *ABS*	00000000 lib2-mul.c
00000000 l    df *ABS*	00000000 libgcc2.c
00000000 l    df *ABS*	00000000 alt_irq_register.c
00000000 l    df *ABS*	00000000 alt_irq_vars.c
00000000 l    df *ABS*	00000000 alt_load.c
00000000 l    df *ABS*	00000000 alt_main.c
00000000 l    df *ABS*	00000000 alt_times.c
00000000 l    df *ABS*	00000000 alt_sys_init.c
00011890 l     O .rwdata	0000002c accelerometer_spi
00000000 l    df *ABS*	00000000 altera_up_avalon_accelerometer_spi.c
00000000 l    df *ABS*	00000000 alt_dcache_flush_all.c
00000000 l    df *ABS*	00000000 alt_dev.c
00011454 l     F .text	00000008 alt_dev_null_write
00000000 l    df *ABS*	00000000 alt_dev_llist_insert.c
00000000 l    df *ABS*	00000000 alt_errno.c
00000000 l    df *ABS*	00000000 alt_find_dev.c
00000000 l    df *ABS*	00000000 alt_icache_flush_all.c
00000000 l    df *ABS*	00000000 alt_tick.c
00000000 l    df *ABS*	00000000 altera_nios2_gen2_irq.c
00000000 l    df *ABS*	00000000 int_errno.c
00000000 l    df *ABS*	00000000 memcmp.c
00000000 l    df *ABS*	00000000 strlen.c
00011a24 g     O .bss	00000004 alt_instruction_exception_handler
00011234 g     F .text	0000002c alt_main
0001023c g     F .text	00000014 led_write
00011aa4 g     O .bss	00000100 alt_irq
00011948 g       *ABS*	00000000 __flash_rwdata_start
00010ea0 g     F .text	00000070 .hidden __fixsfsi
000101bc g     F .text	00000080 sys_timer_isr
00011914 g     O .rwdata	00000004 FLATHIGH
00011924 g     O .rwdata	00000004 jtag_uart
0001162c g     F .text	00000008 altera_nios2_gen2_irq_init
00010000 g     F .entry	0000000c __reset
00011260 g     F .text	00000060 times
000102b4 g     F .text	0000000c is_flat
00011348 g     F .text	00000058 alt_up_accelerometer_spi_read_x_axis
00010020 g       *ABS*	00000000 __flash_exceptions_start
00011a28 g     O .bss	00000004 errno
00011a14 g     O .bss	00000004 alt_argv
00019914 g       *ABS*	00000000 _gp
000118bc g     O .rwdata	00000030 alt_fd_list
000114c8 g     F .text	00000074 alt_find_dev
00011634 g     F .text	00000074 alt_exception_cause_generated_bad_addr
00011918 g     O .rwdata	00000004 FLATLOW
00011928 g     O .rwdata	00000004 alt_max_fd
000110c0 g     F .text	00000094 alt_irq_register
00011ba4 g       *ABS*	00000000 __bss_end
00011574 g     F .text	000000b8 alt_tick
00011540 g     F .text	00000034 alt_alarm_stop
00011a0c g     O .bss	00000004 alt_irq_active
000100fc g     F .exceptions	00000060 alt_irq_handler
000118ec g     O .rwdata	00000028 alt_dev_null
00011450 g     F .text	00000004 alt_dcache_flush_all
00011948 g       *ABS*	00000000 __ram_rwdata_end
000102c0 g     F .text	00000070 timer_init
00010000 g       *ABS*	00000000 __alt_mem_onchip_memory
0001192c g     O .rwdata	00000008 alt_dev_list
00011890 g       *ABS*	00000000 __ram_rodata_end
00011a04 g     O .bss	00000001 led
00011ba4 g       *ABS*	00000000 end
0001015c g     F .exceptions	00000024 alt_instruction_exception_entry
00020000 g       *ABS*	00000000 __alt_stack_pointer
00011034 g     F .text	00000064 .hidden __clzsi2
00010180 g     F .text	0000003c _start
00011a08 g     O .bss	00000004 level
00011a20 g     O .bss	00000004 _alt_tick_rate
00011a1c g     O .bss	00000004 _alt_nticks
000112e0 g     F .text	00000010 alt_sys_init
000112f8 g     F .text	00000014 alt_up_accelerometer_spi_read_address_register
00010f10 g     F .text	00000124 .hidden __floatsisf
00011098 g     F .text	00000028 .hidden __mulsi3
00011890 g       *ABS*	00000000 __ram_rwdata_start
000116f4 g       *ABS*	00000000 __ram_rodata_start
000113a0 g     F .text	00000058 alt_up_accelerometer_spi_read_y_axis
000116a8 g     F .text	00000030 memcmp
00011ba4 g       *ABS*	00000000 __alt_stack_base
0001145c g     F .text	0000006c alt_dev_llist_insert
00011a00 g       *ABS*	00000000 __bss_start
000104c8 g     F .text	000000e0 main
00011a10 g     O .bss	00000004 alt_envp
00011920 g     O .rwdata	00000004 uart_0
0001193c g     O .rwdata	00000004 alt_errno
00010a70 g     F .text	00000430 .hidden __mulsf3
000116f4 g       *ABS*	00000000 __flash_rodata_start
000112c0 g     F .text	00000020 alt_irq_init
00011784 g     O .rodata	00000100 .hidden __clz_tab
00010250 g     F .text	00000030 led_response
00011a18 g     O .bss	00000004 alt_argc
00010020 g       .exceptions	00000000 alt_irq_entry
00011a00 g     O .bss	00000001 pwm
00011934 g     O .rwdata	00000008 alt_fs_list
00010020 g       *ABS*	00000000 __ram_exceptions_start
000112f0 g     F .text	00000008 alt_up_accelerometer_spi_open_dev
00011948 g       *ABS*	00000000 _edata
00011ba4 g       *ABS*	00000000 _end
00010180 g       *ABS*	00000000 __ram_exceptions_end
000113f8 g     F .text	00000058 alt_up_accelerometer_spi_read_z_axis
00020000 g       *ABS*	00000000 __alt_data_end
00010020 g     F .exceptions	00000000 alt_exception
00010280 g     F .text	00000034 convert_read
0001000c g       .entry	00000000 _exit
0001130c g     F .text	00000020 alt_up_accelerometer_spi_read
0001132c g     F .text	0000001c alt_up_accelerometer_spi_write
000116d8 g     F .text	0000001c strlen
0001153c g     F .text	00000004 alt_icache_flush_all
0001191c g     O .rwdata	00000004 alt_priority_mask
00010330 g     F .text	00000198 FIR
00011940 g     O .rwdata	00000008 alt_alarm_list
000105a8 g     F .text	000004c8 .hidden __addsf3
00011154 g     F .text	000000e0 alt_load



Disassembly of section .entry:

00010000 <__reset>:
 * Jump to the _start entry point in the .text section if reset code
 * is allowed or if optimizing for RTL simulation.
 */
#if defined(ALT_ALLOW_CODE_AT_RESET) || defined(ALT_SIM_OPTIMIZE)
    /* Jump to the _start entry point in the .text section. */
    movhi r1, %hi(_start)
   10000:	00400074 	movhi	at,1
    ori r1, r1, %lo(_start)
   10004:	08406014 	ori	at,at,384
    jmp r1
   10008:	0800683a 	jmp	at

0001000c <_exit>:
	...

Disassembly of section .exceptions:

00010020 <alt_exception>:

#else /* ALT_EXCEPTION_STACK disabled */
        /* 
         * Reserve space on normal stack for registers about to be pushed.
         */
        addi  sp, sp, -76
   10020:	deffed04 	addi	sp,sp,-76
         * documentation for details).
         *
         * Leave a gap in the stack frame at 4(sp) for the muldiv handler to
         * store zero into.
         */
        stw   ra,  0(sp)
   10024:	dfc00015 	stw	ra,0(sp)
        stw   r1,   8(sp)
   10028:	d8400215 	stw	at,8(sp)
        stw   r2,  12(sp)
   1002c:	d8800315 	stw	r2,12(sp)
        stw   r3,  16(sp)
   10030:	d8c00415 	stw	r3,16(sp)
        stw   r4,  20(sp)
   10034:	d9000515 	stw	r4,20(sp)
        stw   r5,  24(sp)
   10038:	d9400615 	stw	r5,24(sp)
        stw   r6,  28(sp)
   1003c:	d9800715 	stw	r6,28(sp)
        stw   r7,  32(sp)
   10040:	d9c00815 	stw	r7,32(sp)
        rdctl r5, estatus   /* Read early to avoid usage stall */
   10044:	000b307a 	rdctl	r5,estatus
        stw   r8,  36(sp)
   10048:	da000915 	stw	r8,36(sp)
        stw   r9,  40(sp)
   1004c:	da400a15 	stw	r9,40(sp)
        stw   r10, 44(sp)
   10050:	da800b15 	stw	r10,44(sp)
        stw   r11, 48(sp)
   10054:	dac00c15 	stw	r11,48(sp)
        stw   r12, 52(sp)
   10058:	db000d15 	stw	r12,52(sp)
        stw   r13, 56(sp)
   1005c:	db400e15 	stw	r13,56(sp)
        stw   r14, 60(sp)
   10060:	db800f15 	stw	r14,60(sp)
        stw   r15, 64(sp)
   10064:	dbc01015 	stw	r15,64(sp)
        /*
         * ea-4 contains the address of the instruction being executed
         * when the exception occured. For interrupt exceptions, we will
         * will be re-issue the isntruction. Store it in 72(sp)
         */
        stw   r5,  68(sp)  /* estatus */
   10068:	d9401115 	stw	r5,68(sp)
        addi  r15, ea, -4  /* instruction that caused exception */
   1006c:	ebffff04 	addi	r15,ea,-4
        stw   r15,  72(sp)
   10070:	dbc01215 	stw	r15,72(sp)
#else
        /*
         * Test to see if the exception was a software exception or caused 
         * by an external interrupt, and vector accordingly.
         */
        rdctl r4, ipending
   10074:	0009313a 	rdctl	r4,ipending
        andi  r2, r5, 1
   10078:	2880004c 	andi	r2,r5,1
        beq   r2, zero, .Lnot_irq
   1007c:	10000326 	beq	r2,zero,1008c <alt_exception+0x6c>
        beq   r4, zero, .Lnot_irq
   10080:	20000226 	beq	r4,zero,1008c <alt_exception+0x6c>
        /*
         * Now that all necessary registers have been preserved, call 
         * alt_irq_handler() to process the interrupts.
         */

        call alt_irq_handler
   10084:	00100fc0 	call	100fc <alt_irq_handler>

        .section .exceptions.irqreturn, "xa"

        br    .Lexception_exit
   10088:	00000706 	br	100a8 <alt_exception+0x88>
         * upon completion, so we write ea (address of instruction *after*
         * the one where the exception occured) into 72(sp). The actual
         * instruction that caused the exception is written in r2, which these
         * handlers will utilize.
         */
        stw ea, 72(sp) /* EA is PC+4 so will skip over instruction causing exception */
   1008c:	df401215 	stw	ea,72(sp)
.Lunknown_16bit:
        addi.n r4, r4, 2 /* Need PC+2 to skip over instruction causing exception */
        stw r4, 72(sp)

#else /* CDX is not Enabled and all instructions are 32bits */
        ldw r2, -4(ea) /* Instruction value that caused exception */
   10090:	e8bfff17 	ldw	r2,-4(ea)
         * debugger is present) or go into an infinite loop since the
         * handling behavior is undefined; in that case we will not return here.
         */

        /* Load exception-causing address as first argument (r4) */
        addi   r4, ea, -4
   10094:	e93fff04 	addi	r4,ea,-4

        /* Call the instruction-exception entry */
        call   alt_instruction_exception_entry
   10098:	001015c0 	call	1015c <alt_instruction_exception_entry>
         * instruction
         *
         * Return code was 0: Skip. The instruction after the exception is
         * already stored in 72(sp).
         */
        bne   r2, r0, .Lexception_exit
   1009c:	1000021e 	bne	r2,zero,100a8 <alt_exception+0x88>

        /*
         * Otherwise, modify 72(sp) to re-issue the instruction that caused the
         * exception.
         */
        addi  r15, ea, -4  /* instruction that caused exception */
   100a0:	ebffff04 	addi	r15,ea,-4
        stw   r15,  72(sp)
   100a4:	dbc01215 	stw	r15,72(sp)
        /* 
         * Restore the saved registers, so that all general purpose registers 
         * have been restored to their state at the time the interrupt occured.
         */

        ldw   r5,  68(sp)
   100a8:	d9401117 	ldw	r5,68(sp)
        ldw   ea,  72(sp)  /* This becomes the PC once eret is executed */
   100ac:	df401217 	ldw	ea,72(sp)
        ldw   ra,   0(sp)
   100b0:	dfc00017 	ldw	ra,0(sp)

        wrctl estatus, r5
   100b4:	2801707a 	wrctl	estatus,r5

        ldw   r1,   8(sp)
   100b8:	d8400217 	ldw	at,8(sp)
        ldw   r2,  12(sp)
   100bc:	d8800317 	ldw	r2,12(sp)
        ldw   r3,  16(sp)
   100c0:	d8c00417 	ldw	r3,16(sp)
        ldw   r4,  20(sp)
   100c4:	d9000517 	ldw	r4,20(sp)
        ldw   r5,  24(sp)
   100c8:	d9400617 	ldw	r5,24(sp)
        ldw   r6,  28(sp)
   100cc:	d9800717 	ldw	r6,28(sp)
        ldw   r7,  32(sp)
   100d0:	d9c00817 	ldw	r7,32(sp)

#if defined(ALT_EXCEPTION_STACK) && defined(ALT_STACK_CHECK)
        ldw   et, %gprel(alt_exception_old_stack_limit)(gp)
#endif

        ldw   r8,  36(sp)
   100d4:	da000917 	ldw	r8,36(sp)
        ldw   r9,  40(sp)
   100d8:	da400a17 	ldw	r9,40(sp)
        ldw   r10, 44(sp)
   100dc:	da800b17 	ldw	r10,44(sp)
        ldw   r11, 48(sp)
   100e0:	dac00c17 	ldw	r11,48(sp)
        ldw   r12, 52(sp)
   100e4:	db000d17 	ldw	r12,52(sp)
        ldw   r13, 56(sp)
   100e8:	db400e17 	ldw	r13,56(sp)
        ldw   r14, 60(sp)
   100ec:	db800f17 	ldw	r14,60(sp)
        ldw   r15, 64(sp)
   100f0:	dbc01017 	ldw	r15,64(sp)
        stw   et, %gprel(alt_stack_limit_value)(gp)
        stw   zero, %gprel(alt_exception_old_stack_limit)(gp)
#endif /* ALT_STACK_CHECK */
        ldw   sp,  76(sp)
#else /* ALT_EXCEPTION_STACK disabled */
        addi  sp, sp, 76
   100f4:	dec01304 	addi	sp,sp,76

        /*
         * Return to the interrupted instruction.
         */

        eret
   100f8:	ef80083a 	eret

000100fc <alt_irq_handler>:
 * instruction is present if the macro ALT_CI_INTERRUPT_VECTOR defined.
 */

void alt_irq_handler (void) __attribute__ ((section (".exceptions")));
void alt_irq_handler (void)
{
   100fc:	defffe04 	addi	sp,sp,-8
   10100:	dfc00115 	stw	ra,4(sp)
   10104:	dc000015 	stw	r16,0(sp)
#ifndef NIOS2_EIC_PRESENT
static ALT_INLINE alt_u32 ALT_ALWAYS_INLINE alt_irq_pending (void)
{
  alt_u32 active;

  NIOS2_READ_IPENDING (active);
   10108:	0007313a 	rdctl	r3,ipending
      if (active & mask)
      { 
#ifdef ALT_ENHANCED_INTERRUPT_API_PRESENT
        alt_irq[i].handler(alt_irq[i].context); 
#else
        alt_irq[i].handler(alt_irq[i].context, i); 
   1010c:	04000074 	movhi	r16,1
   10110:	8406a904 	addi	r16,r16,6820

  active = alt_irq_pending ();

  do
  {
    i = 0;
   10114:	000b883a 	mov	r5,zero
    mask = 1;
   10118:	00800044 	movi	r2,1
     * called to clear the interrupt condition.
     */

    do
    {
      if (active & mask)
   1011c:	1888703a 	and	r4,r3,r2
   10120:	20000b26 	beq	r4,zero,10150 <alt_irq_handler+0x54>
      { 
#ifdef ALT_ENHANCED_INTERRUPT_API_PRESENT
        alt_irq[i].handler(alt_irq[i].context); 
#else
        alt_irq[i].handler(alt_irq[i].context, i); 
   10124:	280490fa 	slli	r2,r5,3
   10128:	8085883a 	add	r2,r16,r2
   1012c:	10c00017 	ldw	r3,0(r2)
   10130:	11000117 	ldw	r4,4(r2)
   10134:	183ee83a 	callr	r3
   10138:	0007313a 	rdctl	r3,ipending

    } while (1);

    active = alt_irq_pending ();
    
  } while (active);
   1013c:	183ff51e 	bne	r3,zero,10114 <__alt_data_end+0xffff0114>
  /*
   * Notify the operating system that interrupt processing is complete.
   */ 

  ALT_OS_INT_EXIT();
}
   10140:	dfc00117 	ldw	ra,4(sp)
   10144:	dc000017 	ldw	r16,0(sp)
   10148:	dec00204 	addi	sp,sp,8
   1014c:	f800283a 	ret
#else
        alt_irq[i].handler(alt_irq[i].context, i); 
#endif
        break;
      }
      mask <<= 1;
   10150:	1085883a 	add	r2,r2,r2
      i++;
   10154:	29400044 	addi	r5,r5,1

    } while (1);
   10158:	003ff006 	br	1011c <__alt_data_end+0xffff011c>

0001015c <alt_instruction_exception_entry>:
#else
  cause = NIOS2_EXCEPTION_CAUSE_NOT_PRESENT;
  badaddr = 0;
#endif /* NIOS2_HAS_EXTRA_EXCEPTION_INFO */

  if(alt_instruction_exception_handler) {
   1015c:	d0a04417 	ldw	r2,-32496(gp)
   10160:	10000426 	beq	r2,zero,10174 <alt_instruction_exception_entry+0x18>
     * Call handler. Its return value indicates whether the exception-causing
     * instruction should be re-issued. The code that called us,
     * alt_eceptions_entry.S, will look at this value and adjust the ea
     * register as necessary
     */
    return alt_instruction_exception_handler(cause, exception_pc, badaddr);
   10164:	200b883a 	mov	r5,r4
   10168:	000d883a 	mov	r6,zero
   1016c:	013fffc4 	movi	r4,-1
   10170:	1000683a 	jmp	r2
   *    (a peripheral which negates its interrupt output before its
   *    interrupt handler has been executed will cause spurious interrupts)
   */
  else {
#ifdef NIOS2_HAS_DEBUG_STUB
    NIOS2_BREAK();
   10174:	003da03a 	break	0
#endif /* NIOS2_HAS_DEBUG_STUB */
  }

  /* We should not get here. Remove compiler warning. */
  return NIOS2_EXCEPTION_RETURN_REISSUE_INST;
}
   10178:	0005883a 	mov	r2,zero
   1017c:	f800283a 	ret

Disassembly of section .text:

00010180 <_start>:

    /*
     * Now that the caches are initialized, set up the stack pointer and global pointer.
     * The values provided by the linker are assumed to be correctly aligned.
     */
    movhi sp, %hi(__alt_stack_pointer)
   10180:	06c000b4 	movhi	sp,2
    ori sp, sp, %lo(__alt_stack_pointer)
   10184:	dec00014 	ori	sp,sp,0
    movhi gp, %hi(_gp)
   10188:	06800074 	movhi	gp,1
    ori gp, gp, %lo(_gp)
   1018c:	d6a64514 	ori	gp,gp,39188
 */
#ifndef ALT_SIM_OPTIMIZE
    /* Log that the BSS is about to be cleared. */
    ALT_LOG_PUTS(alt_log_msg_bss)

    movhi r2, %hi(__bss_start)
   10190:	00800074 	movhi	r2,1
    ori r2, r2, %lo(__bss_start)
   10194:	10868014 	ori	r2,r2,6656

    movhi r3, %hi(__bss_end)
   10198:	00c00074 	movhi	r3,1
    ori r3, r3, %lo(__bss_end)
   1019c:	18c6e914 	ori	r3,r3,7076

    beq r2, r3, 1f
   101a0:	10c00326 	beq	r2,r3,101b0 <_start+0x30>

0:
    stw zero, (r2)
   101a4:	10000015 	stw	zero,0(r2)
    addi r2, r2, 4
   101a8:	10800104 	addi	r2,r2,4
    bltu r2, r3, 0b
   101ac:	10fffd36 	bltu	r2,r3,101a4 <__alt_data_end+0xffff01a4>
     * section aren't defined until alt_load() has been called).
     */
    mov   et, zero
#endif

    call alt_load
   101b0:	00111540 	call	11154 <alt_load>

    /* Log that alt_main is about to be called. */
    ALT_LOG_PUTS(alt_log_msg_alt_main)

    /* Call the C entry point. It should never return. */
    call alt_main
   101b4:	00112340 	call	11234 <alt_main>

000101b8 <alt_after_alt_main>:

    /* Wait in infinite loop in case alt_main does return. */
alt_after_alt_main:
    br alt_after_alt_main
   101b8:	003fff06 	br	101b8 <__alt_data_end+0xffff01b8>

000101bc <sys_timer_isr>:
}



void sys_timer_isr() {
    IOWR_ALTERA_AVALON_TIMER_STATUS(TIMER_BASE, 0);
   101bc:	008000b4 	movhi	r2,2
   101c0:	10840804 	addi	r2,r2,4128
   101c4:	10000035 	stwio	zero,0(r2)

    if (pwm < abs(level)) {
   101c8:	d0a03d17 	ldw	r2,-32524(gp)
   101cc:	d1603b07 	ldb	r5,-32532(gp)
   101d0:	1009883a 	mov	r4,r2
   101d4:	1000010e 	bge	r2,zero,101dc <sys_timer_isr+0x20>
   101d8:	0089c83a 	sub	r4,zero,r2
   101dc:	00c000b4 	movhi	r3,2
   101e0:	18c43004 	addi	r3,r3,4288
   101e4:	2900080e 	bge	r5,r4,10208 <sys_timer_isr+0x4c>

        if (level < 0) {
   101e8:	1000040e 	bge	r2,zero,101fc <sys_timer_isr+0x40>
alt_8 pwm = 0;
alt_u8 led;
int level;

void led_write(alt_u8 led_pattern) {
    IOWR(LED_BASE, 0, led_pattern);
   101ec:	d0a03c03 	ldbu	r2,-32528(gp)
   101f0:	1085883a 	add	r2,r2,r2
   101f4:	10803fcc 	andi	r2,r2,255
   101f8:	00000406 	br	1020c <sys_timer_isr+0x50>
   101fc:	d0a03c03 	ldbu	r2,-32528(gp)
   10200:	1004d07a 	srli	r2,r2,1
   10204:	00000106 	br	1020c <sys_timer_isr+0x50>
   10208:	d0a03c03 	ldbu	r2,-32528(gp)
   1020c:	18800035 	stwio	r2,0(r3)

    } else {
        led_write(led);
    }

    if (pwm > PWM_PERIOD) {
   10210:	d0a03b03 	ldbu	r2,-32532(gp)
   10214:	01000404 	movi	r4,16
   10218:	10c03fcc 	andi	r3,r2,255
   1021c:	18c0201c 	xori	r3,r3,128
   10220:	18ffe004 	addi	r3,r3,-128
   10224:	20c0020e 	bge	r4,r3,10230 <sys_timer_isr+0x74>
        pwm = 0;
   10228:	d0203b05 	stb	zero,-32532(gp)
   1022c:	f800283a 	ret
    } else {
        pwm++;
   10230:	10800044 	addi	r2,r2,1
   10234:	d0a03b05 	stb	r2,-32532(gp)
   10238:	f800283a 	ret

0001023c <led_write>:
alt_8 pwm = 0;
alt_u8 led;
int level;

void led_write(alt_u8 led_pattern) {
    IOWR(LED_BASE, 0, led_pattern);
   1023c:	008000b4 	movhi	r2,2
   10240:	21003fcc 	andi	r4,r4,255
   10244:	10843004 	addi	r2,r2,4288
   10248:	11000035 	stwio	r4,0(r2)
   1024c:	f800283a 	ret

00010250 <led_response>:
}

void led_response(char check){
    if(check == 'y'){
   10250:	21003fcc 	andi	r4,r4,255
   10254:	2100201c 	xori	r4,r4,128
   10258:	008000b4 	movhi	r2,2
   1025c:	213fe004 	addi	r4,r4,-128
   10260:	00c01e44 	movi	r3,121
   10264:	10843004 	addi	r2,r2,4288
   10268:	20c0021e 	bne	r4,r3,10274 <led_response+0x24>
        IOWR(LED_BASE, 0, 256);
   1026c:	00c04004 	movi	r3,256
   10270:	00000106 	br	10278 <led_response+0x28>
    }else{
        IOWR(LED_BASE, 0, 16);
   10274:	00c00404 	movi	r3,16
   10278:	10c00035 	stwio	r3,0(r2)
   1027c:	f800283a 	ret

00010280 <convert_read>:
}



void convert_read(alt_32 acc_read, int * level, alt_u8 * led) {
    acc_read += OFFSET;
   10280:	213ff804 	addi	r4,r4,-32
    alt_u8 val = (acc_read >> 6) & 0x07;
    * led = (8 >> val) | (8 << (8 - val));
   10284:	2005d1ba 	srai	r2,r4,6
    * level = (acc_read >> 1) & 0x1f;
   10288:	2009d07a 	srai	r4,r4,1


void convert_read(alt_32 acc_read, int * level, alt_u8 * led) {
    acc_read += OFFSET;
    alt_u8 val = (acc_read >> 6) & 0x07;
    * led = (8 >> val) | (8 << (8 - val));
   1028c:	10c001cc 	andi	r3,r2,7
   10290:	00800204 	movi	r2,8
   10294:	10cfc83a 	sub	r7,r2,r3
   10298:	11ce983a 	sll	r7,r2,r7
   1029c:	10c5d83a 	sra	r2,r2,r3
    * level = (acc_read >> 1) & 0x1f;
   102a0:	210007cc 	andi	r4,r4,31


void convert_read(alt_32 acc_read, int * level, alt_u8 * led) {
    acc_read += OFFSET;
    alt_u8 val = (acc_read >> 6) & 0x07;
    * led = (8 >> val) | (8 << (8 - val));
   102a4:	3884b03a 	or	r2,r7,r2
   102a8:	30800005 	stb	r2,0(r6)
    * level = (acc_read >> 1) & 0x1f;
   102ac:	29000015 	stw	r4,0(r5)
   102b0:	f800283a 	ret

000102b4 <is_flat>:
}

int is_flat(alt_32 reading){
   102b4:	21000f04 	addi	r4,r4,60
   102b8:	20801e70 	cmpltui	r2,r4,121
    if((reading < -60) || (reading > 60)){
        return 0;
    }else{
        return 1;
    }
}
   102bc:	f800283a 	ret

000102c0 <timer_init>:
        pwm++;
    }

}

void timer_init(void * isr) {
   102c0:	defffe04 	addi	sp,sp,-8
   102c4:	dc000015 	stw	r16,0(sp)

    IOWR_ALTERA_AVALON_TIMER_CONTROL(TIMER_BASE, 0x0003);
   102c8:	040000b4 	movhi	r16,2
        pwm++;
    }

}

void timer_init(void * isr) {
   102cc:	dfc00115 	stw	ra,4(sp)

    IOWR_ALTERA_AVALON_TIMER_CONTROL(TIMER_BASE, 0x0003);
   102d0:	84040904 	addi	r16,r16,4132
   102d4:	008000c4 	movi	r2,3
   102d8:	80800035 	stwio	r2,0(r16)
    IOWR_ALTERA_AVALON_TIMER_STATUS(TIMER_BASE, 0);
   102dc:	00c000b4 	movhi	r3,2
   102e0:	0005883a 	mov	r2,zero
   102e4:	18c40804 	addi	r3,r3,4128
   102e8:	18800035 	stwio	r2,0(r3)
    IOWR_ALTERA_AVALON_TIMER_PERIODL(TIMER_BASE, 0x0900);
   102ec:	00c000b4 	movhi	r3,2
   102f0:	18c40a04 	addi	r3,r3,4136
   102f4:	01424004 	movi	r5,2304
   102f8:	19400035 	stwio	r5,0(r3)
    IOWR_ALTERA_AVALON_TIMER_PERIODH(TIMER_BASE, 0x0000);
   102fc:	00c000b4 	movhi	r3,2
   10300:	18c40b04 	addi	r3,r3,4140
   10304:	18800035 	stwio	r2,0(r3)
    alt_irq_register(TIMER_IRQ, 0, isr);
   10308:	200d883a 	mov	r6,r4
   1030c:	000b883a 	mov	r5,zero
   10310:	01000044 	movi	r4,1
   10314:	00110c00 	call	110c0 <alt_irq_register>
    IOWR_ALTERA_AVALON_TIMER_CONTROL(TIMER_BASE, 0x0007);
   10318:	008001c4 	movi	r2,7
   1031c:	80800035 	stwio	r2,0(r16)

}
   10320:	dfc00117 	ldw	ra,4(sp)
   10324:	dc000017 	ldw	r16,0(sp)
   10328:	dec00204 	addi	sp,sp,8
   1032c:	f800283a 	ret

00010330 <FIR>:

  // filter output
  alt_32 yn = 0;

  // implementation of delay line
  xv[29] = xv[28];
   10330:	00800074 	movhi	r2,1
   10334:	10868b04 	addi	r2,r2,6700
   10338:	10c01c17 	ldw	r3,112(r2)
    IOWR_ALTERA_AVALON_TIMER_CONTROL(TIMER_BASE, 0x0007);

}

alt_32 FIR(alt_32 xn)
{
   1033c:	defff904 	addi	sp,sp,-28
   10340:	dd400515 	stw	r21,20(sp)
   10344:	dcc00315 	stw	r19,12(sp)
   10348:	dc800215 	stw	r18,8(sp)
   1034c:	dc400115 	stw	r17,4(sp)
   10350:	dc000015 	stw	r16,0(sp)
   10354:	dfc00615 	stw	ra,24(sp)
   10358:	dd000415 	stw	r20,16(sp)

  // filter output
  alt_32 yn = 0;

  // implementation of delay line
  xv[29] = xv[28];
   1035c:	10c01d15 	stw	r3,116(r2)
  xv[28] = xv[27];
   10360:	10c01b17 	ldw	r3,108(r2)

  // convolve delay line by
  // filter coefficients
  for(int i=0;i<30;i++)
  {
    yn += h[i]*xv[i];
   10364:	05400074 	movhi	r21,1
  xv[5] = xv[4];
  xv[4] = xv[3];
  xv[3] = xv[2];
  xv[2] = xv[1];
  xv[1] = xv[0];
  xv[0] = xn;
   10368:	0023883a 	mov	r17,zero
  // filter output
  alt_32 yn = 0;

  // implementation of delay line
  xv[29] = xv[28];
  xv[28] = xv[27];
   1036c:	10c01c15 	stw	r3,112(r2)
  xv[27] = xv[26];
   10370:	10c01a17 	ldw	r3,104(r2)

  // delay line of time samples
  static alt_32 xv[30] = {0,0,0,0,0,0,0,0,0,0,0,0,0,0,0,0,0,0,0,0,0,0,0,0,0,0,0,0,0,0};

  // filter output
  alt_32 yn = 0;
   10374:	0025883a 	mov	r18,zero
   10378:	1021883a 	mov	r16,r2

  // implementation of delay line
  xv[29] = xv[28];
  xv[28] = xv[27];
  xv[27] = xv[26];
   1037c:	10c01b15 	stw	r3,108(r2)
  xv[26] = xv[25];
   10380:	10c01917 	ldw	r3,100(r2)

  // convolve delay line by
  // filter coefficients
  for(int i=0;i<30;i++)
  {
    yn += h[i]*xv[i];
   10384:	ad45c304 	addi	r21,r21,5900
  xv[1] = xv[0];
  xv[0] = xn;

  // convolve delay line by
  // filter coefficients
  for(int i=0;i<30;i++)
   10388:	04c01e04 	movi	r19,120

  // implementation of delay line
  xv[29] = xv[28];
  xv[28] = xv[27];
  xv[27] = xv[26];
  xv[26] = xv[25];
   1038c:	10c01a15 	stw	r3,104(r2)
  xv[25] = xv[24];
   10390:	10c01817 	ldw	r3,96(r2)
   10394:	10c01915 	stw	r3,100(r2)
  xv[24] = xv[23];
   10398:	10c01717 	ldw	r3,92(r2)
   1039c:	10c01815 	stw	r3,96(r2)
  xv[23] = xv[22];
   103a0:	10c01617 	ldw	r3,88(r2)
   103a4:	10c01715 	stw	r3,92(r2)
  xv[22] = xv[21];
   103a8:	10c01517 	ldw	r3,84(r2)
   103ac:	10c01615 	stw	r3,88(r2)
  xv[21] = xv[20];
   103b0:	10c01417 	ldw	r3,80(r2)
   103b4:	10c01515 	stw	r3,84(r2)
  xv[20] = xv[19];
   103b8:	10c01317 	ldw	r3,76(r2)
   103bc:	10c01415 	stw	r3,80(r2)
  xv[19] = xv[18];
   103c0:	10c01217 	ldw	r3,72(r2)
   103c4:	10c01315 	stw	r3,76(r2)
  xv[18] = xv[17];
   103c8:	10c01117 	ldw	r3,68(r2)
   103cc:	10c01215 	stw	r3,72(r2)
  xv[17] = xv[16];
   103d0:	10c01017 	ldw	r3,64(r2)
   103d4:	10c01115 	stw	r3,68(r2)
  xv[16] = xv[15];
   103d8:	10c00f17 	ldw	r3,60(r2)
   103dc:	10c01015 	stw	r3,64(r2)
  xv[15] = xv[14];
   103e0:	10c00e17 	ldw	r3,56(r2)
   103e4:	10c00f15 	stw	r3,60(r2)
  xv[14] = xv[13];
   103e8:	10c00d17 	ldw	r3,52(r2)
   103ec:	10c00e15 	stw	r3,56(r2)
  xv[13] = xv[12];
   103f0:	10c00c17 	ldw	r3,48(r2)
   103f4:	10c00d15 	stw	r3,52(r2)
  xv[12] = xv[11];
   103f8:	10c00b17 	ldw	r3,44(r2)
   103fc:	10c00c15 	stw	r3,48(r2)
  xv[11] = xv[10];
   10400:	10c00a17 	ldw	r3,40(r2)
   10404:	10c00b15 	stw	r3,44(r2)
  xv[10] = xv[9];
   10408:	10c00917 	ldw	r3,36(r2)
   1040c:	10c00a15 	stw	r3,40(r2)
  xv[9] = xv[8];
   10410:	10c00817 	ldw	r3,32(r2)
   10414:	10c00915 	stw	r3,36(r2)
  xv[8] = xv[7];
   10418:	10c00717 	ldw	r3,28(r2)
   1041c:	10c00815 	stw	r3,32(r2)
  xv[7] = xv[6];
   10420:	10c00617 	ldw	r3,24(r2)
   10424:	10c00715 	stw	r3,28(r2)
  xv[6] = xv[5];
   10428:	10c00517 	ldw	r3,20(r2)
   1042c:	10c00615 	stw	r3,24(r2)
  xv[5] = xv[4];
   10430:	10c00417 	ldw	r3,16(r2)
   10434:	10c00515 	stw	r3,20(r2)
  xv[4] = xv[3];
   10438:	10c00317 	ldw	r3,12(r2)
   1043c:	10c00415 	stw	r3,16(r2)
  xv[3] = xv[2];
   10440:	10c00217 	ldw	r3,8(r2)
   10444:	10c00315 	stw	r3,12(r2)
  xv[2] = xv[1];
   10448:	10c00117 	ldw	r3,4(r2)
   1044c:	10c00215 	stw	r3,8(r2)
  xv[1] = xv[0];
   10450:	10c00017 	ldw	r3,0(r2)
   10454:	10c00115 	stw	r3,4(r2)
  xv[0] = xn;
   10458:	11000015 	stw	r4,0(r2)

  // convolve delay line by
  // filter coefficients
  for(int i=0;i<30;i++)
  {
    yn += h[i]*xv[i];
   1045c:	8c05883a 	add	r2,r17,r16
   10460:	11000017 	ldw	r4,0(r2)
   10464:	0010f100 	call	10f10 <__floatsisf>
   10468:	8d47883a 	add	r3,r17,r21
   1046c:	19400017 	ldw	r5,0(r3)
   10470:	1009883a 	mov	r4,r2
   10474:	8c400104 	addi	r17,r17,4
   10478:	0010a700 	call	10a70 <__mulsf3>
   1047c:	9009883a 	mov	r4,r18
   10480:	1029883a 	mov	r20,r2
   10484:	0010f100 	call	10f10 <__floatsisf>
   10488:	100b883a 	mov	r5,r2
   1048c:	a009883a 	mov	r4,r20
   10490:	00105a80 	call	105a8 <__addsf3>
   10494:	1009883a 	mov	r4,r2
   10498:	0010ea00 	call	10ea0 <__fixsfsi>
   1049c:	1025883a 	mov	r18,r2
  xv[1] = xv[0];
  xv[0] = xn;

  // convolve delay line by
  // filter coefficients
  for(int i=0;i<30;i++)
   104a0:	8cffee1e 	bne	r17,r19,1045c <__alt_data_end+0xffff045c>
    yn += h[i]*xv[i];
  }
  // apply gain
  yn = hg*yn;
  return yn;
}
   104a4:	dfc00617 	ldw	ra,24(sp)
   104a8:	dd400517 	ldw	r21,20(sp)
   104ac:	dd000417 	ldw	r20,16(sp)
   104b0:	dcc00317 	ldw	r19,12(sp)
   104b4:	dc800217 	ldw	r18,8(sp)
   104b8:	dc400117 	ldw	r17,4(sp)
   104bc:	dc000017 	ldw	r16,0(sp)
   104c0:	dec00704 	addi	sp,sp,28
   104c4:	f800283a 	ret

000104c8 <main>:

int main() {
    //alt_32 cmd;
    alt_32 x_read;
    alt_up_accelerometer_spi_dev * acc_dev;
    acc_dev = alt_up_accelerometer_spi_open_dev("/dev/accelerometer_spi");
   104c8:	01000074 	movhi	r4,1
  // apply gain
  yn = hg*yn;
  return yn;
}

int main() {
   104cc:	defffa04 	addi	sp,sp,-24
    //alt_32 cmd;
    alt_32 x_read;
    alt_up_accelerometer_spi_dev * acc_dev;
    acc_dev = alt_up_accelerometer_spi_open_dev("/dev/accelerometer_spi");
   104d0:	2105bd04 	addi	r4,r4,5876
  // apply gain
  yn = hg*yn;
  return yn;
}

int main() {
   104d4:	dfc00515 	stw	ra,20(sp)
   104d8:	dcc00415 	stw	r19,16(sp)
   104dc:	dc800315 	stw	r18,12(sp)
   104e0:	dc400215 	stw	r17,8(sp)
   104e4:	dc000115 	stw	r16,4(sp)
    //alt_32 cmd;
    alt_32 x_read;
    alt_up_accelerometer_spi_dev * acc_dev;
    acc_dev = alt_up_accelerometer_spi_open_dev("/dev/accelerometer_spi");
   104e8:	00112f00 	call	112f0 <alt_up_accelerometer_spi_open_dev>
    if (acc_dev == NULL) { // if return 1, check if the spi ip name is "accelerometer_spi"
   104ec:	10002626 	beq	r2,zero,10588 <main+0xc0>
        return 1;
    }

    timer_init(sys_timer_isr);
   104f0:	01000074 	movhi	r4,1
   104f4:	21006f04 	addi	r4,r4,444
   104f8:	1021883a 	mov	r16,r2
    	exec_t1 = times(NULL);
        alt_up_accelerometer_spi_read_x_axis(acc_dev, & x_read);
        //printf("RAW: %d\t", x_read);
        alt_32 FIR_out;
        FIR_out = FIR(x_read);
        if(FIR_out < RIGHTLIM){
   104fc:	04bfda84 	movi	r18,-150
    acc_dev = alt_up_accelerometer_spi_open_dev("/dev/accelerometer_spi");
    if (acc_dev == NULL) { // if return 1, check if the spi ip name is "accelerometer_spi"
        return 1;
    }

    timer_init(sys_timer_isr);
   10500:	00102c00 	call	102c0 <timer_init>
            	alt_up_accelerometer_spi_read_x_axis(acc_dev, & x_read);
            	FIR_out = FIR(x_read);
            }
            response = 'r';
            //send response
        }else if(FIR_out > LEFTLIM){
   10504:	04c02584 	movi	r19,150
    //cmd = alt_getchar();
    char response; // make array for longer sequence
    //int count = 0;
    while (1) {
    	clock_t exec_t1, exec_t2;
    	exec_t1 = times(NULL);
   10508:	0009883a 	mov	r4,zero
   1050c:	00112600 	call	11260 <times>
        alt_up_accelerometer_spi_read_x_axis(acc_dev, & x_read);
   10510:	8009883a 	mov	r4,r16
   10514:	d80b883a 	mov	r5,sp
   10518:	00113480 	call	11348 <alt_up_accelerometer_spi_read_x_axis>
        //printf("RAW: %d\t", x_read);
        alt_32 FIR_out;
        FIR_out = FIR(x_read);
   1051c:	d9000017 	ldw	r4,0(sp)
   10520:	00103300 	call	10330 <FIR>
        if(FIR_out < RIGHTLIM){
   10524:	1480080e 	bge	r2,r18,10548 <main+0x80>
    * led = (8 >> val) | (8 << (8 - val));
    * level = (acc_read >> 1) & 0x1f;
}

int is_flat(alt_32 reading){
    if((reading < -60) || (reading > 60)){
   10528:	04401e04 	movi	r17,120
   1052c:	10800f04 	addi	r2,r2,60
   10530:	88800f36 	bltu	r17,r2,10570 <main+0xa8>
            response = 'l';
            //send response
        }
        //exec_t2 = times(NULL); // get system time after finishing the process
        //printf("\tTime = %d ticks \n", (int)(exec_t2-exec_t1));
        convert_read(x_read, & level, & led);
   10534:	d9000017 	ldw	r4,0(sp)
   10538:	d1a03c04 	addi	r6,gp,-32528
   1053c:	d1603d04 	addi	r5,gp,-32524
   10540:	00102800 	call	10280 <convert_read>



    }
   10544:	003ff006 	br	10508 <__alt_data_end+0xffff0508>
            	alt_up_accelerometer_spi_read_x_axis(acc_dev, & x_read);
            	FIR_out = FIR(x_read);
            }
            response = 'r';
            //send response
        }else if(FIR_out > LEFTLIM){
   10548:	98bffa0e 	bge	r19,r2,10534 <__alt_data_end+0xffff0534>
    * led = (8 >> val) | (8 << (8 - val));
    * level = (acc_read >> 1) & 0x1f;
}

int is_flat(alt_32 reading){
    if((reading < -60) || (reading > 60)){
   1054c:	04401e04 	movi	r17,120
   10550:	10800f04 	addi	r2,r2,60
   10554:	88bff72e 	bgeu	r17,r2,10534 <__alt_data_end+0xffff0534>
            }
            response = 'r';
            //send response
        }else if(FIR_out > LEFTLIM){
            while(is_flat(FIR_out) == 0){
            	alt_up_accelerometer_spi_read_x_axis(acc_dev, & x_read);
   10558:	8009883a 	mov	r4,r16
   1055c:	d80b883a 	mov	r5,sp
   10560:	00113480 	call	11348 <alt_up_accelerometer_spi_read_x_axis>
            	FIR_out = FIR(x_read);
   10564:	d9000017 	ldw	r4,0(sp)
   10568:	00103300 	call	10330 <FIR>
   1056c:	003ff806 	br	10550 <__alt_data_end+0xffff0550>
        //printf("RAW: %d\t", x_read);
        alt_32 FIR_out;
        FIR_out = FIR(x_read);
        if(FIR_out < RIGHTLIM){
            while(is_flat(FIR_out) == 0){
            	alt_up_accelerometer_spi_read_x_axis(acc_dev, & x_read);
   10570:	8009883a 	mov	r4,r16
   10574:	d80b883a 	mov	r5,sp
   10578:	00113480 	call	11348 <alt_up_accelerometer_spi_read_x_axis>
            	FIR_out = FIR(x_read);
   1057c:	d9000017 	ldw	r4,0(sp)
   10580:	00103300 	call	10330 <FIR>
   10584:	003fe906 	br	1052c <__alt_data_end+0xffff052c>


    }

    return 0;
}
   10588:	00800044 	movi	r2,1
   1058c:	dfc00517 	ldw	ra,20(sp)
   10590:	dcc00417 	ldw	r19,16(sp)
   10594:	dc800317 	ldw	r18,12(sp)
   10598:	dc400217 	ldw	r17,8(sp)
   1059c:	dc000117 	ldw	r16,4(sp)
   105a0:	dec00604 	addi	sp,sp,24
   105a4:	f800283a 	ret

000105a8 <__addsf3>:
   105a8:	defffc04 	addi	sp,sp,-16
   105ac:	2004d7fa 	srli	r2,r4,31
   105b0:	280cd5fa 	srli	r6,r5,23
   105b4:	dc000015 	stw	r16,0(sp)
   105b8:	00c02034 	movhi	r3,128
   105bc:	2020d5fa 	srli	r16,r4,23
   105c0:	280ed7fa 	srli	r7,r5,31
   105c4:	18ffffc4 	addi	r3,r3,-1
   105c8:	dc400115 	stw	r17,4(sp)
   105cc:	1908703a 	and	r4,r3,r4
   105d0:	194a703a 	and	r5,r3,r5
   105d4:	dfc00315 	stw	ra,12(sp)
   105d8:	dc800215 	stw	r18,8(sp)
   105dc:	14403fcc 	andi	r17,r2,255
   105e0:	84003fcc 	andi	r16,r16,255
   105e4:	200890fa 	slli	r4,r4,3
   105e8:	31803fcc 	andi	r6,r6,255
   105ec:	280a90fa 	slli	r5,r5,3
   105f0:	89c05026 	beq	r17,r7,10734 <__addsf3+0x18c>
   105f4:	8185c83a 	sub	r2,r16,r6
   105f8:	00807a0e 	bge	zero,r2,107e4 <__addsf3+0x23c>
   105fc:	30001e1e 	bne	r6,zero,10678 <__addsf3+0xd0>
   10600:	28006d1e 	bne	r5,zero,107b8 <__addsf3+0x210>
   10604:	208001cc 	andi	r2,r4,7
   10608:	10000426 	beq	r2,zero,1061c <__addsf3+0x74>
   1060c:	208003cc 	andi	r2,r4,15
   10610:	00c00104 	movi	r3,4
   10614:	10c00126 	beq	r2,r3,1061c <__addsf3+0x74>
   10618:	20c9883a 	add	r4,r4,r3
   1061c:	2081002c 	andhi	r2,r4,1024
   10620:	10003926 	beq	r2,zero,10708 <__addsf3+0x160>
   10624:	84000044 	addi	r16,r16,1
   10628:	00803fc4 	movi	r2,255
   1062c:	80807826 	beq	r16,r2,10810 <__addsf3+0x268>
   10630:	200891ba 	slli	r4,r4,6
   10634:	8805883a 	mov	r2,r17
   10638:	2008d27a 	srli	r4,r4,9
   1063c:	84003fcc 	andi	r16,r16,255
   10640:	800695fa 	slli	r3,r16,23
   10644:	10803fcc 	andi	r2,r2,255
   10648:	04002034 	movhi	r16,128
   1064c:	843fffc4 	addi	r16,r16,-1
   10650:	100497fa 	slli	r2,r2,31
   10654:	2408703a 	and	r4,r4,r16
   10658:	20e0b03a 	or	r16,r4,r3
   1065c:	8084b03a 	or	r2,r16,r2
   10660:	dfc00317 	ldw	ra,12(sp)
   10664:	dc800217 	ldw	r18,8(sp)
   10668:	dc400117 	ldw	r17,4(sp)
   1066c:	dc000017 	ldw	r16,0(sp)
   10670:	dec00404 	addi	sp,sp,16
   10674:	f800283a 	ret
   10678:	00c03fc4 	movi	r3,255
   1067c:	80ffe126 	beq	r16,r3,10604 <__alt_data_end+0xffff0604>
   10680:	29410034 	orhi	r5,r5,1024
   10684:	00c006c4 	movi	r3,27
   10688:	18807516 	blt	r3,r2,10860 <__addsf3+0x2b8>
   1068c:	00c00804 	movi	r3,32
   10690:	1887c83a 	sub	r3,r3,r2
   10694:	28c6983a 	sll	r3,r5,r3
   10698:	288ad83a 	srl	r5,r5,r2
   1069c:	1804c03a 	cmpne	r2,r3,zero
   106a0:	288ab03a 	or	r5,r5,r2
   106a4:	2149c83a 	sub	r4,r4,r5
   106a8:	2081002c 	andhi	r2,r4,1024
   106ac:	10001426 	beq	r2,zero,10700 <__addsf3+0x158>
   106b0:	04810034 	movhi	r18,1024
   106b4:	94bfffc4 	addi	r18,r18,-1
   106b8:	24a4703a 	and	r18,r4,r18
   106bc:	9009883a 	mov	r4,r18
   106c0:	00110340 	call	11034 <__clzsi2>
   106c4:	10bffec4 	addi	r2,r2,-5
   106c8:	90a4983a 	sll	r18,r18,r2
   106cc:	14005416 	blt	r2,r16,10820 <__addsf3+0x278>
   106d0:	1405c83a 	sub	r2,r2,r16
   106d4:	11000044 	addi	r4,r2,1
   106d8:	00800804 	movi	r2,32
   106dc:	1105c83a 	sub	r2,r2,r4
   106e0:	9084983a 	sll	r2,r18,r2
   106e4:	9124d83a 	srl	r18,r18,r4
   106e8:	0021883a 	mov	r16,zero
   106ec:	1008c03a 	cmpne	r4,r2,zero
   106f0:	9108b03a 	or	r4,r18,r4
   106f4:	003fc306 	br	10604 <__alt_data_end+0xffff0604>
   106f8:	1000db26 	beq	r2,zero,10a68 <__addsf3+0x4c0>
   106fc:	1009883a 	mov	r4,r2
   10700:	208001cc 	andi	r2,r4,7
   10704:	103fc11e 	bne	r2,zero,1060c <__alt_data_end+0xffff060c>
   10708:	2006d0fa 	srli	r3,r4,3
   1070c:	01003fc4 	movi	r4,255
   10710:	8805883a 	mov	r2,r17
   10714:	8100241e 	bne	r16,r4,107a8 <__addsf3+0x200>
   10718:	18006e26 	beq	r3,zero,108d4 <__addsf3+0x32c>
   1071c:	19001034 	orhi	r4,r3,64
   10720:	00c02034 	movhi	r3,128
   10724:	18ffffc4 	addi	r3,r3,-1
   10728:	043fffc4 	movi	r16,-1
   1072c:	20c8703a 	and	r4,r4,r3
   10730:	003fc206 	br	1063c <__alt_data_end+0xffff063c>
   10734:	8187c83a 	sub	r3,r16,r6
   10738:	00c03e0e 	bge	zero,r3,10834 <__addsf3+0x28c>
   1073c:	30002326 	beq	r6,zero,107cc <__addsf3+0x224>
   10740:	01803fc4 	movi	r6,255
   10744:	81bfaf26 	beq	r16,r6,10604 <__alt_data_end+0xffff0604>
   10748:	29410034 	orhi	r5,r5,1024
   1074c:	018006c4 	movi	r6,27
   10750:	30c07416 	blt	r6,r3,10924 <__addsf3+0x37c>
   10754:	01800804 	movi	r6,32
   10758:	30cdc83a 	sub	r6,r6,r3
   1075c:	298c983a 	sll	r6,r5,r6
   10760:	28cad83a 	srl	r5,r5,r3
   10764:	3006c03a 	cmpne	r3,r6,zero
   10768:	28cab03a 	or	r5,r5,r3
   1076c:	2149883a 	add	r4,r4,r5
   10770:	20c1002c 	andhi	r3,r4,1024
   10774:	183fe226 	beq	r3,zero,10700 <__alt_data_end+0xffff0700>
   10778:	84000044 	addi	r16,r16,1
   1077c:	00c03fc4 	movi	r3,255
   10780:	80c05426 	beq	r16,r3,108d4 <__addsf3+0x32c>
   10784:	00bf0034 	movhi	r2,64512
   10788:	10bfffc4 	addi	r2,r2,-1
   1078c:	20c0004c 	andi	r3,r4,1
   10790:	2088703a 	and	r4,r4,r2
   10794:	2008d07a 	srli	r4,r4,1
   10798:	20c8b03a 	or	r4,r4,r3
   1079c:	003f9906 	br	10604 <__alt_data_end+0xffff0604>
   107a0:	0007883a 	mov	r3,zero
   107a4:	0005883a 	mov	r2,zero
   107a8:	01002034 	movhi	r4,128
   107ac:	213fffc4 	addi	r4,r4,-1
   107b0:	1908703a 	and	r4,r3,r4
   107b4:	003fa106 	br	1063c <__alt_data_end+0xffff063c>
   107b8:	10bfffc4 	addi	r2,r2,-1
   107bc:	103fb926 	beq	r2,zero,106a4 <__alt_data_end+0xffff06a4>
   107c0:	00c03fc4 	movi	r3,255
   107c4:	80ffaf1e 	bne	r16,r3,10684 <__alt_data_end+0xffff0684>
   107c8:	003f8e06 	br	10604 <__alt_data_end+0xffff0604>
   107cc:	283f8d26 	beq	r5,zero,10604 <__alt_data_end+0xffff0604>
   107d0:	18ffffc4 	addi	r3,r3,-1
   107d4:	183fe526 	beq	r3,zero,1076c <__alt_data_end+0xffff076c>
   107d8:	01803fc4 	movi	r6,255
   107dc:	81bfdb1e 	bne	r16,r6,1074c <__alt_data_end+0xffff074c>
   107e0:	003f8806 	br	10604 <__alt_data_end+0xffff0604>
   107e4:	1000201e 	bne	r2,zero,10868 <__addsf3+0x2c0>
   107e8:	80800044 	addi	r2,r16,1
   107ec:	10803fcc 	andi	r2,r2,255
   107f0:	01800044 	movi	r6,1
   107f4:	3080450e 	bge	r6,r2,1090c <__addsf3+0x364>
   107f8:	2165c83a 	sub	r18,r4,r5
   107fc:	90c1002c 	andhi	r3,r18,1024
   10800:	18002b26 	beq	r3,zero,108b0 <__addsf3+0x308>
   10804:	2925c83a 	sub	r18,r5,r4
   10808:	3823883a 	mov	r17,r7
   1080c:	003fab06 	br	106bc <__alt_data_end+0xffff06bc>
   10810:	8805883a 	mov	r2,r17
   10814:	043fffc4 	movi	r16,-1
   10818:	0009883a 	mov	r4,zero
   1081c:	003f8706 	br	1063c <__alt_data_end+0xffff063c>
   10820:	013f0034 	movhi	r4,64512
   10824:	213fffc4 	addi	r4,r4,-1
   10828:	80a1c83a 	sub	r16,r16,r2
   1082c:	9108703a 	and	r4,r18,r4
   10830:	003f7406 	br	10604 <__alt_data_end+0xffff0604>
   10834:	1800411e 	bne	r3,zero,1093c <__addsf3+0x394>
   10838:	80c00044 	addi	r3,r16,1
   1083c:	19c03fcc 	andi	r7,r3,255
   10840:	01800044 	movi	r6,1
   10844:	31c0260e 	bge	r6,r7,108e0 <__addsf3+0x338>
   10848:	01803fc4 	movi	r6,255
   1084c:	19802126 	beq	r3,r6,108d4 <__addsf3+0x32c>
   10850:	2149883a 	add	r4,r4,r5
   10854:	2008d07a 	srli	r4,r4,1
   10858:	1821883a 	mov	r16,r3
   1085c:	003f6906 	br	10604 <__alt_data_end+0xffff0604>
   10860:	01400044 	movi	r5,1
   10864:	003f8f06 	br	106a4 <__alt_data_end+0xffff06a4>
   10868:	8000151e 	bne	r16,zero,108c0 <__addsf3+0x318>
   1086c:	20002f26 	beq	r4,zero,1092c <__addsf3+0x384>
   10870:	0084303a 	nor	r2,zero,r2
   10874:	10000a26 	beq	r2,zero,108a0 <__addsf3+0x2f8>
   10878:	00c03fc4 	movi	r3,255
   1087c:	30c02b26 	beq	r6,r3,1092c <__addsf3+0x384>
   10880:	00c006c4 	movi	r3,27
   10884:	18806d16 	blt	r3,r2,10a3c <__addsf3+0x494>
   10888:	00c00804 	movi	r3,32
   1088c:	1887c83a 	sub	r3,r3,r2
   10890:	20c6983a 	sll	r3,r4,r3
   10894:	2084d83a 	srl	r2,r4,r2
   10898:	1808c03a 	cmpne	r4,r3,zero
   1089c:	1108b03a 	or	r4,r2,r4
   108a0:	2909c83a 	sub	r4,r5,r4
   108a4:	3021883a 	mov	r16,r6
   108a8:	3823883a 	mov	r17,r7
   108ac:	003f7e06 	br	106a8 <__alt_data_end+0xffff06a8>
   108b0:	903f821e 	bne	r18,zero,106bc <__alt_data_end+0xffff06bc>
   108b4:	0005883a 	mov	r2,zero
   108b8:	0021883a 	mov	r16,zero
   108bc:	003fba06 	br	107a8 <__alt_data_end+0xffff07a8>
   108c0:	00c03fc4 	movi	r3,255
   108c4:	30c01926 	beq	r6,r3,1092c <__addsf3+0x384>
   108c8:	0085c83a 	sub	r2,zero,r2
   108cc:	21010034 	orhi	r4,r4,1024
   108d0:	003feb06 	br	10880 <__alt_data_end+0xffff0880>
   108d4:	043fffc4 	movi	r16,-1
   108d8:	0009883a 	mov	r4,zero
   108dc:	003f5706 	br	1063c <__alt_data_end+0xffff063c>
   108e0:	80004a1e 	bne	r16,zero,10a0c <__addsf3+0x464>
   108e4:	20005926 	beq	r4,zero,10a4c <__addsf3+0x4a4>
   108e8:	283f4626 	beq	r5,zero,10604 <__alt_data_end+0xffff0604>
   108ec:	2149883a 	add	r4,r4,r5
   108f0:	2081002c 	andhi	r2,r4,1024
   108f4:	103f8226 	beq	r2,zero,10700 <__alt_data_end+0xffff0700>
   108f8:	00bf0034 	movhi	r2,64512
   108fc:	10bfffc4 	addi	r2,r2,-1
   10900:	3021883a 	mov	r16,r6
   10904:	2088703a 	and	r4,r4,r2
   10908:	003f3e06 	br	10604 <__alt_data_end+0xffff0604>
   1090c:	8000121e 	bne	r16,zero,10958 <__addsf3+0x3b0>
   10910:	2000261e 	bne	r4,zero,109ac <__addsf3+0x404>
   10914:	283fa226 	beq	r5,zero,107a0 <__alt_data_end+0xffff07a0>
   10918:	2809883a 	mov	r4,r5
   1091c:	3823883a 	mov	r17,r7
   10920:	003f3806 	br	10604 <__alt_data_end+0xffff0604>
   10924:	01400044 	movi	r5,1
   10928:	003f9006 	br	1076c <__alt_data_end+0xffff076c>
   1092c:	2809883a 	mov	r4,r5
   10930:	3021883a 	mov	r16,r6
   10934:	3823883a 	mov	r17,r7
   10938:	003f3206 	br	10604 <__alt_data_end+0xffff0604>
   1093c:	80000c1e 	bne	r16,zero,10970 <__addsf3+0x3c8>
   10940:	20002f26 	beq	r4,zero,10a00 <__addsf3+0x458>
   10944:	00c6303a 	nor	r3,zero,r3
   10948:	18002b1e 	bne	r3,zero,109f8 <__addsf3+0x450>
   1094c:	2149883a 	add	r4,r4,r5
   10950:	3021883a 	mov	r16,r6
   10954:	003f8606 	br	10770 <__alt_data_end+0xffff0770>
   10958:	20001b1e 	bne	r4,zero,109c8 <__addsf3+0x420>
   1095c:	28003926 	beq	r5,zero,10a44 <__addsf3+0x49c>
   10960:	2809883a 	mov	r4,r5
   10964:	3823883a 	mov	r17,r7
   10968:	04003fc4 	movi	r16,255
   1096c:	003f2506 	br	10604 <__alt_data_end+0xffff0604>
   10970:	01c03fc4 	movi	r7,255
   10974:	31c02226 	beq	r6,r7,10a00 <__addsf3+0x458>
   10978:	00c7c83a 	sub	r3,zero,r3
   1097c:	21010034 	orhi	r4,r4,1024
   10980:	01c006c4 	movi	r7,27
   10984:	38c03616 	blt	r7,r3,10a60 <__addsf3+0x4b8>
   10988:	01c00804 	movi	r7,32
   1098c:	38cfc83a 	sub	r7,r7,r3
   10990:	21ce983a 	sll	r7,r4,r7
   10994:	20c6d83a 	srl	r3,r4,r3
   10998:	3808c03a 	cmpne	r4,r7,zero
   1099c:	1906b03a 	or	r3,r3,r4
   109a0:	1949883a 	add	r4,r3,r5
   109a4:	3021883a 	mov	r16,r6
   109a8:	003f7106 	br	10770 <__alt_data_end+0xffff0770>
   109ac:	283f1526 	beq	r5,zero,10604 <__alt_data_end+0xffff0604>
   109b0:	2145c83a 	sub	r2,r4,r5
   109b4:	10c1002c 	andhi	r3,r2,1024
   109b8:	183f4f26 	beq	r3,zero,106f8 <__alt_data_end+0xffff06f8>
   109bc:	2909c83a 	sub	r4,r5,r4
   109c0:	3823883a 	mov	r17,r7
   109c4:	003f0f06 	br	10604 <__alt_data_end+0xffff0604>
   109c8:	28001a26 	beq	r5,zero,10a34 <__addsf3+0x48c>
   109cc:	2008d0fa 	srli	r4,r4,3
   109d0:	2080102c 	andhi	r2,r4,64
   109d4:	10000526 	beq	r2,zero,109ec <__addsf3+0x444>
   109d8:	280ad0fa 	srli	r5,r5,3
   109dc:	2880102c 	andhi	r2,r5,64
   109e0:	1000021e 	bne	r2,zero,109ec <__addsf3+0x444>
   109e4:	2809883a 	mov	r4,r5
   109e8:	3823883a 	mov	r17,r7
   109ec:	200890fa 	slli	r4,r4,3
   109f0:	04003fc4 	movi	r16,255
   109f4:	003f0306 	br	10604 <__alt_data_end+0xffff0604>
   109f8:	01c03fc4 	movi	r7,255
   109fc:	31ffe01e 	bne	r6,r7,10980 <__alt_data_end+0xffff0980>
   10a00:	2809883a 	mov	r4,r5
   10a04:	3021883a 	mov	r16,r6
   10a08:	003efe06 	br	10604 <__alt_data_end+0xffff0604>
   10a0c:	20001126 	beq	r4,zero,10a54 <__addsf3+0x4ac>
   10a10:	28000826 	beq	r5,zero,10a34 <__addsf3+0x48c>
   10a14:	2008d0fa 	srli	r4,r4,3
   10a18:	2080102c 	andhi	r2,r4,64
   10a1c:	103ff326 	beq	r2,zero,109ec <__alt_data_end+0xffff09ec>
   10a20:	280ad0fa 	srli	r5,r5,3
   10a24:	2880102c 	andhi	r2,r5,64
   10a28:	103ff01e 	bne	r2,zero,109ec <__alt_data_end+0xffff09ec>
   10a2c:	2809883a 	mov	r4,r5
   10a30:	003fee06 	br	109ec <__alt_data_end+0xffff09ec>
   10a34:	04003fc4 	movi	r16,255
   10a38:	003ef206 	br	10604 <__alt_data_end+0xffff0604>
   10a3c:	01000044 	movi	r4,1
   10a40:	003f9706 	br	108a0 <__alt_data_end+0xffff08a0>
   10a44:	0005883a 	mov	r2,zero
   10a48:	003f3406 	br	1071c <__alt_data_end+0xffff071c>
   10a4c:	2809883a 	mov	r4,r5
   10a50:	003eec06 	br	10604 <__alt_data_end+0xffff0604>
   10a54:	2809883a 	mov	r4,r5
   10a58:	04003fc4 	movi	r16,255
   10a5c:	003ee906 	br	10604 <__alt_data_end+0xffff0604>
   10a60:	00c00044 	movi	r3,1
   10a64:	003fce06 	br	109a0 <__alt_data_end+0xffff09a0>
   10a68:	0005883a 	mov	r2,zero
   10a6c:	003f4e06 	br	107a8 <__alt_data_end+0xffff07a8>

00010a70 <__mulsf3>:
   10a70:	defff504 	addi	sp,sp,-44
   10a74:	dc000115 	stw	r16,4(sp)
   10a78:	2020d5fa 	srli	r16,r4,23
   10a7c:	dd400615 	stw	r21,24(sp)
   10a80:	202ad7fa 	srli	r21,r4,31
   10a84:	dc800315 	stw	r18,12(sp)
   10a88:	04802034 	movhi	r18,128
   10a8c:	df000915 	stw	fp,36(sp)
   10a90:	dd000515 	stw	r20,20(sp)
   10a94:	94bfffc4 	addi	r18,r18,-1
   10a98:	dfc00a15 	stw	ra,40(sp)
   10a9c:	ddc00815 	stw	r23,32(sp)
   10aa0:	dd800715 	stw	r22,28(sp)
   10aa4:	dcc00415 	stw	r19,16(sp)
   10aa8:	dc400215 	stw	r17,8(sp)
   10aac:	84003fcc 	andi	r16,r16,255
   10ab0:	9124703a 	and	r18,r18,r4
   10ab4:	a829883a 	mov	r20,r21
   10ab8:	af003fcc 	andi	fp,r21,255
   10abc:	80005426 	beq	r16,zero,10c10 <__mulsf3+0x1a0>
   10ac0:	00803fc4 	movi	r2,255
   10ac4:	80802f26 	beq	r16,r2,10b84 <__mulsf3+0x114>
   10ac8:	91002034 	orhi	r4,r18,128
   10acc:	202490fa 	slli	r18,r4,3
   10ad0:	843fe044 	addi	r16,r16,-127
   10ad4:	0023883a 	mov	r17,zero
   10ad8:	002f883a 	mov	r23,zero
   10adc:	2804d5fa 	srli	r2,r5,23
   10ae0:	282cd7fa 	srli	r22,r5,31
   10ae4:	01002034 	movhi	r4,128
   10ae8:	213fffc4 	addi	r4,r4,-1
   10aec:	10803fcc 	andi	r2,r2,255
   10af0:	2166703a 	and	r19,r4,r5
   10af4:	b1803fcc 	andi	r6,r22,255
   10af8:	10004c26 	beq	r2,zero,10c2c <__mulsf3+0x1bc>
   10afc:	00c03fc4 	movi	r3,255
   10b00:	10c04726 	beq	r2,r3,10c20 <__mulsf3+0x1b0>
   10b04:	99002034 	orhi	r4,r19,128
   10b08:	202690fa 	slli	r19,r4,3
   10b0c:	10bfe044 	addi	r2,r2,-127
   10b10:	0007883a 	mov	r3,zero
   10b14:	80a1883a 	add	r16,r16,r2
   10b18:	010003c4 	movi	r4,15
   10b1c:	1c44b03a 	or	r2,r3,r17
   10b20:	b56af03a 	xor	r21,r22,r21
   10b24:	81c00044 	addi	r7,r16,1
   10b28:	20806b36 	bltu	r4,r2,10cd8 <__mulsf3+0x268>
   10b2c:	100490ba 	slli	r2,r2,2
   10b30:	01000074 	movhi	r4,1
   10b34:	2102d104 	addi	r4,r4,2884
   10b38:	1105883a 	add	r2,r2,r4
   10b3c:	10800017 	ldw	r2,0(r2)
   10b40:	1000683a 	jmp	r2
   10b44:	00010cd8 	cmpnei	zero,zero,1075
   10b48:	00010b98 	cmpnei	zero,zero,1070
   10b4c:	00010b98 	cmpnei	zero,zero,1070
   10b50:	00010b94 	movui	zero,1070
   10b54:	00010cbc 	xorhi	zero,zero,1074
   10b58:	00010cbc 	xorhi	zero,zero,1074
   10b5c:	00010ca8 	cmpgeui	zero,zero,1074
   10b60:	00010b94 	movui	zero,1070
   10b64:	00010cbc 	xorhi	zero,zero,1074
   10b68:	00010ca8 	cmpgeui	zero,zero,1074
   10b6c:	00010cbc 	xorhi	zero,zero,1074
   10b70:	00010b94 	movui	zero,1070
   10b74:	00010cc8 	cmpgei	zero,zero,1075
   10b78:	00010cc8 	cmpgei	zero,zero,1075
   10b7c:	00010cc8 	cmpgei	zero,zero,1075
   10b80:	00010dd8 	cmpnei	zero,zero,1079
   10b84:	90003b1e 	bne	r18,zero,10c74 <__mulsf3+0x204>
   10b88:	04400204 	movi	r17,8
   10b8c:	05c00084 	movi	r23,2
   10b90:	003fd206 	br	10adc <__alt_data_end+0xffff0adc>
   10b94:	302b883a 	mov	r21,r6
   10b98:	00800084 	movi	r2,2
   10b9c:	18802626 	beq	r3,r2,10c38 <__mulsf3+0x1c8>
   10ba0:	008000c4 	movi	r2,3
   10ba4:	1880b826 	beq	r3,r2,10e88 <__mulsf3+0x418>
   10ba8:	00800044 	movi	r2,1
   10bac:	1880af1e 	bne	r3,r2,10e6c <__mulsf3+0x3fc>
   10bb0:	a829883a 	mov	r20,r21
   10bb4:	0007883a 	mov	r3,zero
   10bb8:	0009883a 	mov	r4,zero
   10bbc:	18803fcc 	andi	r2,r3,255
   10bc0:	100695fa 	slli	r3,r2,23
   10bc4:	a0803fcc 	andi	r2,r20,255
   10bc8:	100a97fa 	slli	r5,r2,31
   10bcc:	00802034 	movhi	r2,128
   10bd0:	10bfffc4 	addi	r2,r2,-1
   10bd4:	2084703a 	and	r2,r4,r2
   10bd8:	10c4b03a 	or	r2,r2,r3
   10bdc:	1144b03a 	or	r2,r2,r5
   10be0:	dfc00a17 	ldw	ra,40(sp)
   10be4:	df000917 	ldw	fp,36(sp)
   10be8:	ddc00817 	ldw	r23,32(sp)
   10bec:	dd800717 	ldw	r22,28(sp)
   10bf0:	dd400617 	ldw	r21,24(sp)
   10bf4:	dd000517 	ldw	r20,20(sp)
   10bf8:	dcc00417 	ldw	r19,16(sp)
   10bfc:	dc800317 	ldw	r18,12(sp)
   10c00:	dc400217 	ldw	r17,8(sp)
   10c04:	dc000117 	ldw	r16,4(sp)
   10c08:	dec00b04 	addi	sp,sp,44
   10c0c:	f800283a 	ret
   10c10:	90000d1e 	bne	r18,zero,10c48 <__mulsf3+0x1d8>
   10c14:	04400104 	movi	r17,4
   10c18:	05c00044 	movi	r23,1
   10c1c:	003faf06 	br	10adc <__alt_data_end+0xffff0adc>
   10c20:	9806c03a 	cmpne	r3,r19,zero
   10c24:	18c00084 	addi	r3,r3,2
   10c28:	003fba06 	br	10b14 <__alt_data_end+0xffff0b14>
   10c2c:	9800141e 	bne	r19,zero,10c80 <__mulsf3+0x210>
   10c30:	00c00044 	movi	r3,1
   10c34:	003fb706 	br	10b14 <__alt_data_end+0xffff0b14>
   10c38:	a829883a 	mov	r20,r21
   10c3c:	00ffffc4 	movi	r3,-1
   10c40:	0009883a 	mov	r4,zero
   10c44:	003fdd06 	br	10bbc <__alt_data_end+0xffff0bbc>
   10c48:	9009883a 	mov	r4,r18
   10c4c:	d9400015 	stw	r5,0(sp)
   10c50:	00110340 	call	11034 <__clzsi2>
   10c54:	10fffec4 	addi	r3,r2,-5
   10c58:	10801d84 	addi	r2,r2,118
   10c5c:	90e4983a 	sll	r18,r18,r3
   10c60:	00a1c83a 	sub	r16,zero,r2
   10c64:	0023883a 	mov	r17,zero
   10c68:	002f883a 	mov	r23,zero
   10c6c:	d9400017 	ldw	r5,0(sp)
   10c70:	003f9a06 	br	10adc <__alt_data_end+0xffff0adc>
   10c74:	04400304 	movi	r17,12
   10c78:	05c000c4 	movi	r23,3
   10c7c:	003f9706 	br	10adc <__alt_data_end+0xffff0adc>
   10c80:	9809883a 	mov	r4,r19
   10c84:	d9800015 	stw	r6,0(sp)
   10c88:	00110340 	call	11034 <__clzsi2>
   10c8c:	10fffec4 	addi	r3,r2,-5
   10c90:	10801d84 	addi	r2,r2,118
   10c94:	98e6983a 	sll	r19,r19,r3
   10c98:	0085c83a 	sub	r2,zero,r2
   10c9c:	0007883a 	mov	r3,zero
   10ca0:	d9800017 	ldw	r6,0(sp)
   10ca4:	003f9b06 	br	10b14 <__alt_data_end+0xffff0b14>
   10ca8:	01002034 	movhi	r4,128
   10cac:	0029883a 	mov	r20,zero
   10cb0:	213fffc4 	addi	r4,r4,-1
   10cb4:	00ffffc4 	movi	r3,-1
   10cb8:	003fc006 	br	10bbc <__alt_data_end+0xffff0bbc>
   10cbc:	9027883a 	mov	r19,r18
   10cc0:	b807883a 	mov	r3,r23
   10cc4:	003fb406 	br	10b98 <__alt_data_end+0xffff0b98>
   10cc8:	9027883a 	mov	r19,r18
   10ccc:	e02b883a 	mov	r21,fp
   10cd0:	b807883a 	mov	r3,r23
   10cd4:	003fb006 	br	10b98 <__alt_data_end+0xffff0b98>
   10cd8:	9028d43a 	srli	r20,r18,16
   10cdc:	982cd43a 	srli	r22,r19,16
   10ce0:	94bfffcc 	andi	r18,r18,65535
   10ce4:	9cffffcc 	andi	r19,r19,65535
   10ce8:	980b883a 	mov	r5,r19
   10cec:	9009883a 	mov	r4,r18
   10cf0:	d9c00015 	stw	r7,0(sp)
   10cf4:	00110980 	call	11098 <__mulsi3>
   10cf8:	a00b883a 	mov	r5,r20
   10cfc:	9809883a 	mov	r4,r19
   10d00:	1023883a 	mov	r17,r2
   10d04:	00110980 	call	11098 <__mulsi3>
   10d08:	a009883a 	mov	r4,r20
   10d0c:	b00b883a 	mov	r5,r22
   10d10:	1027883a 	mov	r19,r2
   10d14:	00110980 	call	11098 <__mulsi3>
   10d18:	b00b883a 	mov	r5,r22
   10d1c:	9009883a 	mov	r4,r18
   10d20:	1029883a 	mov	r20,r2
   10d24:	00110980 	call	11098 <__mulsi3>
   10d28:	8806d43a 	srli	r3,r17,16
   10d2c:	14c5883a 	add	r2,r2,r19
   10d30:	d9c00017 	ldw	r7,0(sp)
   10d34:	1885883a 	add	r2,r3,r2
   10d38:	14c0022e 	bgeu	r2,r19,10d44 <__mulsf3+0x2d4>
   10d3c:	00c00074 	movhi	r3,1
   10d40:	a0e9883a 	add	r20,r20,r3
   10d44:	1026943a 	slli	r19,r2,16
   10d48:	8c7fffcc 	andi	r17,r17,65535
   10d4c:	1004d43a 	srli	r2,r2,16
   10d50:	9c63883a 	add	r17,r19,r17
   10d54:	882691ba 	slli	r19,r17,6
   10d58:	1505883a 	add	r2,r2,r20
   10d5c:	8822d6ba 	srli	r17,r17,26
   10d60:	100891ba 	slli	r4,r2,6
   10d64:	9826c03a 	cmpne	r19,r19,zero
   10d68:	9c62b03a 	or	r17,r19,r17
   10d6c:	8926b03a 	or	r19,r17,r4
   10d70:	9882002c 	andhi	r2,r19,2048
   10d74:	10000426 	beq	r2,zero,10d88 <__mulsf3+0x318>
   10d78:	9804d07a 	srli	r2,r19,1
   10d7c:	9900004c 	andi	r4,r19,1
   10d80:	3821883a 	mov	r16,r7
   10d84:	1126b03a 	or	r19,r2,r4
   10d88:	80c01fc4 	addi	r3,r16,127
   10d8c:	00c0210e 	bge	zero,r3,10e14 <__mulsf3+0x3a4>
   10d90:	988001cc 	andi	r2,r19,7
   10d94:	10000426 	beq	r2,zero,10da8 <__mulsf3+0x338>
   10d98:	988003cc 	andi	r2,r19,15
   10d9c:	01000104 	movi	r4,4
   10da0:	11000126 	beq	r2,r4,10da8 <__mulsf3+0x338>
   10da4:	9927883a 	add	r19,r19,r4
   10da8:	9882002c 	andhi	r2,r19,2048
   10dac:	10000426 	beq	r2,zero,10dc0 <__mulsf3+0x350>
   10db0:	00be0034 	movhi	r2,63488
   10db4:	10bfffc4 	addi	r2,r2,-1
   10db8:	80c02004 	addi	r3,r16,128
   10dbc:	98a6703a 	and	r19,r19,r2
   10dc0:	00803f84 	movi	r2,254
   10dc4:	10ff9c16 	blt	r2,r3,10c38 <__alt_data_end+0xffff0c38>
   10dc8:	980891ba 	slli	r4,r19,6
   10dcc:	a829883a 	mov	r20,r21
   10dd0:	2008d27a 	srli	r4,r4,9
   10dd4:	003f7906 	br	10bbc <__alt_data_end+0xffff0bbc>
   10dd8:	9080102c 	andhi	r2,r18,64
   10ddc:	10000826 	beq	r2,zero,10e00 <__mulsf3+0x390>
   10de0:	9880102c 	andhi	r2,r19,64
   10de4:	1000061e 	bne	r2,zero,10e00 <__mulsf3+0x390>
   10de8:	00802034 	movhi	r2,128
   10dec:	99001034 	orhi	r4,r19,64
   10df0:	10bfffc4 	addi	r2,r2,-1
   10df4:	b029883a 	mov	r20,r22
   10df8:	2088703a 	and	r4,r4,r2
   10dfc:	003fad06 	br	10cb4 <__alt_data_end+0xffff0cb4>
   10e00:	00802034 	movhi	r2,128
   10e04:	91001034 	orhi	r4,r18,64
   10e08:	10bfffc4 	addi	r2,r2,-1
   10e0c:	2088703a 	and	r4,r4,r2
   10e10:	003fa806 	br	10cb4 <__alt_data_end+0xffff0cb4>
   10e14:	00800044 	movi	r2,1
   10e18:	10c7c83a 	sub	r3,r2,r3
   10e1c:	008006c4 	movi	r2,27
   10e20:	10ff6316 	blt	r2,r3,10bb0 <__alt_data_end+0xffff0bb0>
   10e24:	00800804 	movi	r2,32
   10e28:	10c5c83a 	sub	r2,r2,r3
   10e2c:	9884983a 	sll	r2,r19,r2
   10e30:	98c6d83a 	srl	r3,r19,r3
   10e34:	1004c03a 	cmpne	r2,r2,zero
   10e38:	1884b03a 	or	r2,r3,r2
   10e3c:	10c001cc 	andi	r3,r2,7
   10e40:	18000426 	beq	r3,zero,10e54 <__mulsf3+0x3e4>
   10e44:	10c003cc 	andi	r3,r2,15
   10e48:	01000104 	movi	r4,4
   10e4c:	19000126 	beq	r3,r4,10e54 <__mulsf3+0x3e4>
   10e50:	1105883a 	add	r2,r2,r4
   10e54:	10c1002c 	andhi	r3,r2,1024
   10e58:	18000626 	beq	r3,zero,10e74 <__mulsf3+0x404>
   10e5c:	a829883a 	mov	r20,r21
   10e60:	00c00044 	movi	r3,1
   10e64:	0009883a 	mov	r4,zero
   10e68:	003f5406 	br	10bbc <__alt_data_end+0xffff0bbc>
   10e6c:	3821883a 	mov	r16,r7
   10e70:	003fc506 	br	10d88 <__alt_data_end+0xffff0d88>
   10e74:	100491ba 	slli	r2,r2,6
   10e78:	a829883a 	mov	r20,r21
   10e7c:	0007883a 	mov	r3,zero
   10e80:	1008d27a 	srli	r4,r2,9
   10e84:	003f4d06 	br	10bbc <__alt_data_end+0xffff0bbc>
   10e88:	00802034 	movhi	r2,128
   10e8c:	99001034 	orhi	r4,r19,64
   10e90:	10bfffc4 	addi	r2,r2,-1
   10e94:	a829883a 	mov	r20,r21
   10e98:	2088703a 	and	r4,r4,r2
   10e9c:	003f8506 	br	10cb4 <__alt_data_end+0xffff0cb4>

00010ea0 <__fixsfsi>:
   10ea0:	200ad5fa 	srli	r5,r4,23
   10ea4:	00c02034 	movhi	r3,128
   10ea8:	18ffffc4 	addi	r3,r3,-1
   10eac:	29403fcc 	andi	r5,r5,255
   10eb0:	00801f84 	movi	r2,126
   10eb4:	1906703a 	and	r3,r3,r4
   10eb8:	2008d7fa 	srli	r4,r4,31
   10ebc:	11400e0e 	bge	r2,r5,10ef8 <__fixsfsi+0x58>
   10ec0:	00802744 	movi	r2,157
   10ec4:	11400816 	blt	r2,r5,10ee8 <__fixsfsi+0x48>
   10ec8:	00802544 	movi	r2,149
   10ecc:	18c02034 	orhi	r3,r3,128
   10ed0:	11400b0e 	bge	r2,r5,10f00 <__fixsfsi+0x60>
   10ed4:	28bfda84 	addi	r2,r5,-150
   10ed8:	1884983a 	sll	r2,r3,r2
   10edc:	20000726 	beq	r4,zero,10efc <__fixsfsi+0x5c>
   10ee0:	0085c83a 	sub	r2,zero,r2
   10ee4:	f800283a 	ret
   10ee8:	00a00034 	movhi	r2,32768
   10eec:	10bfffc4 	addi	r2,r2,-1
   10ef0:	2085883a 	add	r2,r4,r2
   10ef4:	f800283a 	ret
   10ef8:	0005883a 	mov	r2,zero
   10efc:	f800283a 	ret
   10f00:	00802584 	movi	r2,150
   10f04:	1145c83a 	sub	r2,r2,r5
   10f08:	1884d83a 	srl	r2,r3,r2
   10f0c:	003ff306 	br	10edc <__alt_data_end+0xffff0edc>

00010f10 <__floatsisf>:
   10f10:	defffd04 	addi	sp,sp,-12
   10f14:	dfc00215 	stw	ra,8(sp)
   10f18:	dc400115 	stw	r17,4(sp)
   10f1c:	dc000015 	stw	r16,0(sp)
   10f20:	20003526 	beq	r4,zero,10ff8 <__floatsisf+0xe8>
   10f24:	2021883a 	mov	r16,r4
   10f28:	2022d7fa 	srli	r17,r4,31
   10f2c:	20003616 	blt	r4,zero,11008 <__floatsisf+0xf8>
   10f30:	8009883a 	mov	r4,r16
   10f34:	00110340 	call	11034 <__clzsi2>
   10f38:	00c02784 	movi	r3,158
   10f3c:	1887c83a 	sub	r3,r3,r2
   10f40:	01002584 	movi	r4,150
   10f44:	20c01416 	blt	r4,r3,10f98 <__floatsisf+0x88>
   10f48:	20c9c83a 	sub	r4,r4,r3
   10f4c:	8120983a 	sll	r16,r16,r4
   10f50:	00802034 	movhi	r2,128
   10f54:	10bfffc4 	addi	r2,r2,-1
   10f58:	8809883a 	mov	r4,r17
   10f5c:	80a0703a 	and	r16,r16,r2
   10f60:	18803fcc 	andi	r2,r3,255
   10f64:	100695fa 	slli	r3,r2,23
   10f68:	20803fcc 	andi	r2,r4,255
   10f6c:	100897fa 	slli	r4,r2,31
   10f70:	00802034 	movhi	r2,128
   10f74:	10bfffc4 	addi	r2,r2,-1
   10f78:	8084703a 	and	r2,r16,r2
   10f7c:	10c4b03a 	or	r2,r2,r3
   10f80:	1104b03a 	or	r2,r2,r4
   10f84:	dfc00217 	ldw	ra,8(sp)
   10f88:	dc400117 	ldw	r17,4(sp)
   10f8c:	dc000017 	ldw	r16,0(sp)
   10f90:	dec00304 	addi	sp,sp,12
   10f94:	f800283a 	ret
   10f98:	01002644 	movi	r4,153
   10f9c:	20c01c16 	blt	r4,r3,11010 <__floatsisf+0x100>
   10fa0:	20c9c83a 	sub	r4,r4,r3
   10fa4:	8120983a 	sll	r16,r16,r4
   10fa8:	013f0034 	movhi	r4,64512
   10fac:	213fffc4 	addi	r4,r4,-1
   10fb0:	814001cc 	andi	r5,r16,7
   10fb4:	8108703a 	and	r4,r16,r4
   10fb8:	28000426 	beq	r5,zero,10fcc <__floatsisf+0xbc>
   10fbc:	840003cc 	andi	r16,r16,15
   10fc0:	01400104 	movi	r5,4
   10fc4:	81400126 	beq	r16,r5,10fcc <__floatsisf+0xbc>
   10fc8:	2149883a 	add	r4,r4,r5
   10fcc:	2141002c 	andhi	r5,r4,1024
   10fd0:	28000526 	beq	r5,zero,10fe8 <__floatsisf+0xd8>
   10fd4:	00c027c4 	movi	r3,159
   10fd8:	1887c83a 	sub	r3,r3,r2
   10fdc:	00bf0034 	movhi	r2,64512
   10fe0:	10bfffc4 	addi	r2,r2,-1
   10fe4:	2088703a 	and	r4,r4,r2
   10fe8:	202091ba 	slli	r16,r4,6
   10fec:	8809883a 	mov	r4,r17
   10ff0:	8020d27a 	srli	r16,r16,9
   10ff4:	003fda06 	br	10f60 <__alt_data_end+0xffff0f60>
   10ff8:	0009883a 	mov	r4,zero
   10ffc:	0007883a 	mov	r3,zero
   11000:	0021883a 	mov	r16,zero
   11004:	003fd606 	br	10f60 <__alt_data_end+0xffff0f60>
   11008:	0121c83a 	sub	r16,zero,r4
   1100c:	003fc806 	br	10f30 <__alt_data_end+0xffff0f30>
   11010:	01002e44 	movi	r4,185
   11014:	20c9c83a 	sub	r4,r4,r3
   11018:	01400144 	movi	r5,5
   1101c:	8108983a 	sll	r4,r16,r4
   11020:	288bc83a 	sub	r5,r5,r2
   11024:	8160d83a 	srl	r16,r16,r5
   11028:	2008c03a 	cmpne	r4,r4,zero
   1102c:	8120b03a 	or	r16,r16,r4
   11030:	003fdd06 	br	10fa8 <__alt_data_end+0xffff0fa8>

00011034 <__clzsi2>:
   11034:	00bfffd4 	movui	r2,65535
   11038:	11000536 	bltu	r2,r4,11050 <__clzsi2+0x1c>
   1103c:	00803fc4 	movi	r2,255
   11040:	11000f36 	bltu	r2,r4,11080 <__clzsi2+0x4c>
   11044:	00800804 	movi	r2,32
   11048:	0007883a 	mov	r3,zero
   1104c:	00000506 	br	11064 <__clzsi2+0x30>
   11050:	00804034 	movhi	r2,256
   11054:	10bfffc4 	addi	r2,r2,-1
   11058:	11000c2e 	bgeu	r2,r4,1108c <__clzsi2+0x58>
   1105c:	00800204 	movi	r2,8
   11060:	00c00604 	movi	r3,24
   11064:	20c8d83a 	srl	r4,r4,r3
   11068:	00c00074 	movhi	r3,1
   1106c:	18c5e104 	addi	r3,r3,6020
   11070:	1909883a 	add	r4,r3,r4
   11074:	20c00003 	ldbu	r3,0(r4)
   11078:	10c5c83a 	sub	r2,r2,r3
   1107c:	f800283a 	ret
   11080:	00800604 	movi	r2,24
   11084:	00c00204 	movi	r3,8
   11088:	003ff606 	br	11064 <__alt_data_end+0xffff1064>
   1108c:	00800404 	movi	r2,16
   11090:	1007883a 	mov	r3,r2
   11094:	003ff306 	br	11064 <__alt_data_end+0xffff1064>

00011098 <__mulsi3>:
   11098:	0005883a 	mov	r2,zero
   1109c:	20000726 	beq	r4,zero,110bc <__mulsi3+0x24>
   110a0:	20c0004c 	andi	r3,r4,1
   110a4:	2008d07a 	srli	r4,r4,1
   110a8:	18000126 	beq	r3,zero,110b0 <__mulsi3+0x18>
   110ac:	1145883a 	add	r2,r2,r5
   110b0:	294b883a 	add	r5,r5,r5
   110b4:	203ffa1e 	bne	r4,zero,110a0 <__alt_data_end+0xffff10a0>
   110b8:	f800283a 	ret
   110bc:	f800283a 	ret

000110c0 <alt_irq_register>:
                      alt_isr_func handler)
{
  int rc = -EINVAL;  
  alt_irq_context status;

  if (id < ALT_NIRQ)
   110c0:	008007c4 	movi	r2,31
   110c4:	11002136 	bltu	r2,r4,1114c <alt_irq_register+0x8c>
static ALT_INLINE alt_irq_context ALT_ALWAYS_INLINE 
       alt_irq_disable_all (void)
{
  alt_irq_context context;

  NIOS2_READ_STATUS (context);
   110c8:	000f303a 	rdctl	r7,status

  NIOS2_WRITE_STATUS (context & ~NIOS2_STATUS_PIE_MSK);
   110cc:	00ffff84 	movi	r3,-2
   110d0:	38c4703a 	and	r2,r7,r3
   110d4:	1001703a 	wrctl	status,r2
     * state.
     */

    status = alt_irq_disable_all ();

    alt_irq[id].handler = handler;
   110d8:	200490fa 	slli	r2,r4,3
   110dc:	02000074 	movhi	r8,1
   110e0:	4206a904 	addi	r8,r8,6820
   110e4:	4085883a 	add	r2,r8,r2
   110e8:	11800015 	stw	r6,0(r2)
    alt_irq[id].context = context;
   110ec:	11400115 	stw	r5,4(r2)
   110f0:	00800044 	movi	r2,1

    rc = (handler) ? alt_irq_enable (id): alt_irq_disable (id);
   110f4:	30000726 	beq	r6,zero,11114 <alt_irq_register+0x54>
static ALT_INLINE alt_irq_context ALT_ALWAYS_INLINE 
       alt_irq_disable_all (void)
{
  alt_irq_context context;

  NIOS2_READ_STATUS (context);
   110f8:	000b303a 	rdctl	r5,status

  NIOS2_WRITE_STATUS (context & ~NIOS2_STATUS_PIE_MSK);
   110fc:	28c6703a 	and	r3,r5,r3
   11100:	1801703a 	wrctl	status,r3
  alt_irq_context  status;
  extern volatile alt_u32 alt_irq_active;

  status = alt_irq_disable_all ();

  alt_irq_active |= (1 << id);
   11104:	d0e03e17 	ldw	r3,-32520(gp)
   11108:	1104983a 	sll	r2,r2,r4
   1110c:	10c4b03a 	or	r2,r2,r3
   11110:	00000706 	br	11130 <alt_irq_register+0x70>
static ALT_INLINE alt_irq_context ALT_ALWAYS_INLINE 
       alt_irq_disable_all (void)
{
  alt_irq_context context;

  NIOS2_READ_STATUS (context);
   11114:	000b303a 	rdctl	r5,status

  NIOS2_WRITE_STATUS (context & ~NIOS2_STATUS_PIE_MSK);
   11118:	28c6703a 	and	r3,r5,r3
   1111c:	1801703a 	wrctl	status,r3
  alt_irq_context  status;
  extern volatile alt_u32 alt_irq_active;

  status = alt_irq_disable_all ();

  alt_irq_active &= ~(1 << id);
   11120:	1104983a 	sll	r2,r2,r4
   11124:	d0e03e17 	ldw	r3,-32520(gp)
   11128:	0084303a 	nor	r2,zero,r2
   1112c:	10c4703a 	and	r2,r2,r3
   11130:	d0a03e15 	stw	r2,-32520(gp)
  NIOS2_WRITE_IENABLE (alt_irq_active);
   11134:	d0a03e17 	ldw	r2,-32520(gp)
   11138:	100170fa 	wrctl	ienable,r2
  status &= ~NIOS2_STATUS_PIE_MSK;
  status |= (context & NIOS2_STATUS_PIE_MSK);
  
  NIOS2_WRITE_STATUS (status);
#else
  NIOS2_WRITE_STATUS (context);
   1113c:	2801703a 	wrctl	status,r5
   11140:	3801703a 	wrctl	status,r7
   11144:	0005883a 	mov	r2,zero
   11148:	f800283a 	ret
 
int alt_irq_register (alt_u32 id, 
                      void* context, 
                      alt_isr_func handler)
{
  int rc = -EINVAL;  
   1114c:	00bffa84 	movi	r2,-22
    rc = (handler) ? alt_irq_enable (id): alt_irq_disable (id);

    alt_irq_enable_all(status);
  }
  return rc; 
}
   11150:	f800283a 	ret

00011154 <alt_load>:
 * there is no bootloader, so this application is responsible for loading to
 * RAM any sections that are required.
 */  

void alt_load (void)
{
   11154:	deffff04 	addi	sp,sp,-4
   11158:	01000074 	movhi	r4,1
   1115c:	01400074 	movhi	r5,1
   11160:	dfc00015 	stw	ra,0(sp)
   11164:	21062404 	addi	r4,r4,6288
   11168:	29465204 	addi	r5,r5,6472

static void ALT_INLINE alt_load_section (alt_u32* from, 
                                         alt_u32* to, 
                                         alt_u32* end)
{
  if (to != from)
   1116c:	2140061e 	bne	r4,r5,11188 <alt_load+0x34>
   11170:	01000074 	movhi	r4,1
   11174:	01400074 	movhi	r5,1
   11178:	21000804 	addi	r4,r4,32
   1117c:	29400804 	addi	r5,r5,32
   11180:	2140121e 	bne	r4,r5,111cc <alt_load+0x78>
   11184:	00000b06 	br	111b4 <alt_load+0x60>
   11188:	00c00074 	movhi	r3,1
   1118c:	18c65204 	addi	r3,r3,6472
   11190:	1907c83a 	sub	r3,r3,r4
   11194:	0005883a 	mov	r2,zero
  {
    while( to != end )
   11198:	10fff526 	beq	r2,r3,11170 <__alt_data_end+0xffff1170>
    {
      *to++ = *from++;
   1119c:	114f883a 	add	r7,r2,r5
   111a0:	39c00017 	ldw	r7,0(r7)
   111a4:	110d883a 	add	r6,r2,r4
   111a8:	10800104 	addi	r2,r2,4
   111ac:	31c00015 	stw	r7,0(r6)
   111b0:	003ff906 	br	11198 <__alt_data_end+0xffff1198>
   111b4:	01000074 	movhi	r4,1
   111b8:	01400074 	movhi	r5,1
   111bc:	2105bd04 	addi	r4,r4,5876
   111c0:	2945bd04 	addi	r5,r5,5876

static void ALT_INLINE alt_load_section (alt_u32* from, 
                                         alt_u32* to, 
                                         alt_u32* end)
{
  if (to != from)
   111c4:	2140101e 	bne	r4,r5,11208 <alt_load+0xb4>
   111c8:	00000b06 	br	111f8 <alt_load+0xa4>
   111cc:	00c00074 	movhi	r3,1
   111d0:	18c06004 	addi	r3,r3,384
   111d4:	1907c83a 	sub	r3,r3,r4
   111d8:	0005883a 	mov	r2,zero
  {
    while( to != end )
   111dc:	10fff526 	beq	r2,r3,111b4 <__alt_data_end+0xffff11b4>
    {
      *to++ = *from++;
   111e0:	114f883a 	add	r7,r2,r5
   111e4:	39c00017 	ldw	r7,0(r7)
   111e8:	110d883a 	add	r6,r2,r4
   111ec:	10800104 	addi	r2,r2,4
   111f0:	31c00015 	stw	r7,0(r6)
   111f4:	003ff906 	br	111dc <__alt_data_end+0xffff11dc>
  
  /*
   * Now ensure that the caches are in synch.
   */
  
  alt_dcache_flush_all();
   111f8:	00114500 	call	11450 <alt_dcache_flush_all>
  alt_icache_flush_all();
}
   111fc:	dfc00017 	ldw	ra,0(sp)
   11200:	dec00104 	addi	sp,sp,4
  /*
   * Now ensure that the caches are in synch.
   */
  
  alt_dcache_flush_all();
  alt_icache_flush_all();
   11204:	001153c1 	jmpi	1153c <alt_icache_flush_all>
   11208:	00c00074 	movhi	r3,1
   1120c:	18c62404 	addi	r3,r3,6288
   11210:	1907c83a 	sub	r3,r3,r4

static void ALT_INLINE alt_load_section (alt_u32* from, 
                                         alt_u32* to, 
                                         alt_u32* end)
{
  if (to != from)
   11214:	0005883a 	mov	r2,zero
  {
    while( to != end )
   11218:	18bff726 	beq	r3,r2,111f8 <__alt_data_end+0xffff11f8>
    {
      *to++ = *from++;
   1121c:	114f883a 	add	r7,r2,r5
   11220:	39c00017 	ldw	r7,0(r7)
   11224:	110d883a 	add	r6,r2,r4
   11228:	10800104 	addi	r2,r2,4
   1122c:	31c00015 	stw	r7,0(r6)
   11230:	003ff906 	br	11218 <__alt_data_end+0xffff1218>

00011234 <alt_main>:
 * devices/filesystems/components in the system; and call the entry point for
 * the users application, i.e. main().
 */

void alt_main (void)
{
   11234:	deffff04 	addi	sp,sp,-4
#endif

  /* ALT LOG - please see HAL/sys/alt_log_printf.h for details */
  ALT_LOG_PRINT_BOOT("[alt_main.c] Entering alt_main, calling alt_irq_init.\r\n");
  /* Initialize the interrupt controller. */
  alt_irq_init (NULL);
   11238:	0009883a 	mov	r4,zero
 * devices/filesystems/components in the system; and call the entry point for
 * the users application, i.e. main().
 */

void alt_main (void)
{
   1123c:	dfc00015 	stw	ra,0(sp)
#endif

  /* ALT LOG - please see HAL/sys/alt_log_printf.h for details */
  ALT_LOG_PRINT_BOOT("[alt_main.c] Entering alt_main, calling alt_irq_init.\r\n");
  /* Initialize the interrupt controller. */
  alt_irq_init (NULL);
   11240:	00112c00 	call	112c0 <alt_irq_init>
  ALT_LOG_PRINT_BOOT("[alt_main.c] Done OS Init, calling alt_sem_create.\r\n");
  ALT_SEM_CREATE (&alt_fd_list_lock, 1);

  /* Initialize the device drivers/software components. */
  ALT_LOG_PRINT_BOOT("[alt_main.c] Calling alt_sys_init.\r\n");
  alt_sys_init();
   11244:	00112e00 	call	112e0 <alt_sys_init>
   */

  ALT_LOG_PRINT_BOOT("[alt_main.c] Calling main.\r\n");

#ifdef ALT_NO_EXIT
  main (alt_argc, alt_argv, alt_envp);
   11248:	d1a03f17 	ldw	r6,-32516(gp)
   1124c:	d1604017 	ldw	r5,-32512(gp)
   11250:	d1204117 	ldw	r4,-32508(gp)
  close(STDOUT_FILENO);
  exit (result);
#endif

  ALT_LOG_PRINT_BOOT("[alt_main.c] After main - we should not be here?.\r\n");
}
   11254:	dfc00017 	ldw	ra,0(sp)
   11258:	dec00104 	addi	sp,sp,4
   */

  ALT_LOG_PRINT_BOOT("[alt_main.c] Calling main.\r\n");

#ifdef ALT_NO_EXIT
  main (alt_argc, alt_argv, alt_envp);
   1125c:	00104c81 	jmpi	104c8 <main>

00011260 <times>:
 * Obtain the system clock rate in ticks/s. 
 */

static ALT_INLINE alt_u32 ALT_ALWAYS_INLINE alt_ticks_per_second (void)
{
  return _alt_tick_rate;
   11260:	d0e04317 	ldw	r3,-32500(gp)
 * alt_nticks() returns the elapsed number of system clock ticks since reset.
 */

static ALT_INLINE alt_u32 ALT_ALWAYS_INLINE alt_nticks (void)
{
  return _alt_nticks;
   11264:	d0a04217 	ldw	r2,-32504(gp)
{
  clock_t ticks = alt_nticks(); 

  /* If there is no system clock present, generate an error */

  if (!alt_ticks_per_second())
   11268:	1800101e 	bne	r3,zero,112ac <times+0x4c>

extern int errno;

static ALT_INLINE int* alt_get_errno(void)
{
  return ((alt_errno) ? alt_errno() : &errno);
   1126c:	d0a00a17 	ldw	r2,-32728(gp)
   11270:	10000926 	beq	r2,zero,11298 <times+0x38>
 *
 * ALT_TIMES is mapped onto the times() system call in alt_syscall.h
 */
 
clock_t ALT_TIMES (struct tms *buf)
{
   11274:	deffff04 	addi	sp,sp,-4
   11278:	dfc00015 	stw	ra,0(sp)
   1127c:	103ee83a 	callr	r2

  /* If there is no system clock present, generate an error */

  if (!alt_ticks_per_second())
  {
    ALT_ERRNO = ENOSYS;
   11280:	00c01604 	movi	r3,88
   11284:	10c00015 	stw	r3,0(r2)
    return 0;
   11288:	0005883a 	mov	r2,zero
  buf->tms_stime  = ticks;
  buf->tms_cutime = 0;
  buf->tms_cstime = 0;

  return ticks;
}
   1128c:	dfc00017 	ldw	ra,0(sp)
   11290:	dec00104 	addi	sp,sp,4
   11294:	f800283a 	ret
   11298:	d0a04504 	addi	r2,gp,-32492

  /* If there is no system clock present, generate an error */

  if (!alt_ticks_per_second())
  {
    ALT_ERRNO = ENOSYS;
   1129c:	00c01604 	movi	r3,88
   112a0:	10c00015 	stw	r3,0(r2)
    return 0;
   112a4:	0005883a 	mov	r2,zero
  buf->tms_stime  = ticks;
  buf->tms_cutime = 0;
  buf->tms_cstime = 0;

  return ticks;
}
   112a8:	f800283a 	ret
    return 0;
  }

  /* Otherwise return the elapsed time */

  buf->tms_utime  = 0;
   112ac:	20000015 	stw	zero,0(r4)
  buf->tms_stime  = ticks;
   112b0:	20800115 	stw	r2,4(r4)
  buf->tms_cutime = 0;
   112b4:	20000215 	stw	zero,8(r4)
  buf->tms_cstime = 0;
   112b8:	20000315 	stw	zero,12(r4)

  return ticks;
   112bc:	f800283a 	ret

000112c0 <alt_irq_init>:
 * The "base" parameter is ignored and only
 * present for backwards-compatibility.
 */

void alt_irq_init ( const void* base )
{
   112c0:	deffff04 	addi	sp,sp,-4
   112c4:	dfc00015 	stw	ra,0(sp)
    ALTERA_NIOS2_GEN2_IRQ_INIT ( CPU, cpu);
   112c8:	001162c0 	call	1162c <altera_nios2_gen2_irq_init>
 * alt_irq_cpu_enable_interrupts() enables the CPU to start taking interrupts.
 */
static ALT_INLINE void ALT_ALWAYS_INLINE 
       alt_irq_cpu_enable_interrupts (void)
{
    NIOS2_WRITE_STATUS(NIOS2_STATUS_PIE_MSK
   112cc:	00800044 	movi	r2,1
   112d0:	1001703a 	wrctl	status,r2
    alt_irq_cpu_enable_interrupts();
}
   112d4:	dfc00017 	ldw	ra,0(sp)
   112d8:	dec00104 	addi	sp,sp,4
   112dc:	f800283a 	ret

000112e0 <alt_sys_init>:

static ALT_INLINE int alt_dev_reg (alt_dev* dev)
{
  extern alt_llist alt_dev_list;

  return alt_dev_llist_insert ((alt_dev_llist*) dev, &alt_dev_list);
   112e0:	01000074 	movhi	r4,1
   112e4:	d1600604 	addi	r5,gp,-32744
   112e8:	21062404 	addi	r4,r4,6288
   112ec:	001145c1 	jmpi	1145c <alt_dev_llist_insert>

000112f0 <alt_up_accelerometer_spi_open_dev>:
{
  // find the device from the device list 
  // (see altera_hal/HAL/inc/priv/alt_file.h 
  // and altera_hal/HAL/src/alt_find_dev.c 
  // for details)
  alt_up_accelerometer_spi_dev *dev = (alt_up_accelerometer_spi_dev*)alt_find_dev(name, &alt_dev_list);
   112f0:	d1600604 	addi	r5,gp,-32744
   112f4:	00114c81 	jmpi	114c8 <alt_find_dev>

000112f8 <alt_up_accelerometer_spi_read_address_register>:
 * @return 0 for success 
 **/
int alt_up_accelerometer_spi_read_address_register(alt_up_accelerometer_spi_dev *accel_spi, alt_u8 *addr)
{
	// reads data from the device Address register
	*(addr) = IORD_ALT_UP_ACCELEROMETER_SPI_ADDRESS(accel_spi->base); 
   112f8:	20800a17 	ldw	r2,40(r4)
   112fc:	10800023 	ldbuio	r2,0(r2)
   11300:	28800005 	stb	r2,0(r5)

	return 0;
}
   11304:	0005883a 	mov	r2,zero
   11308:	f800283a 	ret

0001130c <alt_up_accelerometer_spi_read>:
 * @return 0 for success
 **/
int alt_up_accelerometer_spi_read(alt_up_accelerometer_spi_dev *accel_spi, alt_u8 addr, alt_u8 *data)
{
	// set the register address in the Address register
	IOWR_ALT_UP_ACCELEROMETER_SPI_ADDRESS(accel_spi->base, addr & ALT_UP_ACCELEROMETER_SPI_ADDRESS_ADDR_MSK); 
   1130c:	20800a17 	ldw	r2,40(r4)
   11310:	29400fcc 	andi	r5,r5,63
   11314:	11400025 	stbio	r5,0(r2)

	// read data to the device Data register
	*(data) = IORD_ALT_UP_ACCELEROMETER_SPI_DATA(accel_spi->base) & ALT_UP_ACCELEROMETER_SPI_DATA_DATA_MSK;
   11318:	20800a17 	ldw	r2,40(r4)
   1131c:	10800063 	ldbuio	r2,1(r2)
   11320:	30800005 	stb	r2,0(r6)

	return 0;
}
   11324:	0005883a 	mov	r2,zero
   11328:	f800283a 	ret

0001132c <alt_up_accelerometer_spi_write>:
 * @return 0 for success
 **/
int alt_up_accelerometer_spi_write(alt_up_accelerometer_spi_dev *accel_spi, alt_u8 addr, alt_u8 data)
{
	// set the register address in the Address register
	IOWR_ALT_UP_ACCELEROMETER_SPI_ADDRESS(accel_spi->base, addr & ALT_UP_ACCELEROMETER_SPI_ADDRESS_ADDR_MSK); 
   1132c:	20800a17 	ldw	r2,40(r4)
   11330:	29400fcc 	andi	r5,r5,63
   11334:	11400025 	stbio	r5,0(r2)

	// write data to the device Data register
	IOWR_ALT_UP_ACCELEROMETER_SPI_DATA(accel_spi->base, data & ALT_UP_ACCELEROMETER_SPI_DATA_DATA_MSK); 
   11338:	20800a17 	ldw	r2,40(r4)
   1133c:	11800065 	stbio	r6,1(r2)

	return 0;
}
   11340:	0005883a 	mov	r2,zero
   11344:	f800283a 	ret

00011348 <alt_up_accelerometer_spi_read_x_axis>:
 * @return 0 for success or -1 for failure
 **/
int alt_up_accelerometer_spi_read_x_axis(alt_up_accelerometer_spi_dev *accel_spi, alt_32 *x_axis)
{
	// set the register address in the Address register
	IOWR_ALT_UP_ACCELEROMETER_SPI_ADDRESS(accel_spi->base, ACCELEROMETER_SPI_X_AXIS_LOWER_BYTE & ALT_UP_ACCELEROMETER_SPI_ADDRESS_ADDR_MSK); 
   11348:	20800a17 	ldw	r2,40(r4)
   1134c:	00c00c84 	movi	r3,50
   11350:	10c00025 	stbio	r3,0(r2)

	// read data to the device Data register
	*(x_axis) = IORD_ALT_UP_ACCELEROMETER_SPI_DATA(accel_spi->base) & ALT_UP_ACCELEROMETER_SPI_DATA_DATA_MSK;
   11354:	20800a17 	ldw	r2,40(r4)
   11358:	10800063 	ldbuio	r2,1(r2)

	// set the register address in the Address register
	IOWR_ALT_UP_ACCELEROMETER_SPI_ADDRESS(accel_spi->base, ACCELEROMETER_SPI_X_AXIS_UPPER_BYTE & ALT_UP_ACCELEROMETER_SPI_ADDRESS_ADDR_MSK); 
   1135c:	00c00cc4 	movi	r3,51
{
	// set the register address in the Address register
	IOWR_ALT_UP_ACCELEROMETER_SPI_ADDRESS(accel_spi->base, ACCELEROMETER_SPI_X_AXIS_LOWER_BYTE & ALT_UP_ACCELEROMETER_SPI_ADDRESS_ADDR_MSK); 

	// read data to the device Data register
	*(x_axis) = IORD_ALT_UP_ACCELEROMETER_SPI_DATA(accel_spi->base) & ALT_UP_ACCELEROMETER_SPI_DATA_DATA_MSK;
   11360:	10803fcc 	andi	r2,r2,255
   11364:	28800015 	stw	r2,0(r5)

	// set the register address in the Address register
	IOWR_ALT_UP_ACCELEROMETER_SPI_ADDRESS(accel_spi->base, ACCELEROMETER_SPI_X_AXIS_UPPER_BYTE & ALT_UP_ACCELEROMETER_SPI_ADDRESS_ADDR_MSK); 
   11368:	20800a17 	ldw	r2,40(r4)
   1136c:	10c00025 	stbio	r3,0(r2)

	// read data to the device Data register
	*(x_axis) += (IORD_ALT_UP_ACCELEROMETER_SPI_DATA(accel_spi->base) & ALT_UP_ACCELEROMETER_SPI_DATA_DATA_MSK) << 8;
   11370:	20800a17 	ldw	r2,40(r4)
   11374:	10800063 	ldbuio	r2,1(r2)
   11378:	10803fcc 	andi	r2,r2,255
   1137c:	1006923a 	slli	r3,r2,8
   11380:	28800017 	ldw	r2,0(r5)
   11384:	1885883a 	add	r2,r3,r2

	if (*(x_axis) & 0x00008000)
   11388:	10e0000c 	andi	r3,r2,32768
   1138c:	18000126 	beq	r3,zero,11394 <alt_up_accelerometer_spi_read_x_axis+0x4c>
	{
		*(x_axis) |= 0xFFFF0000;
   11390:	10bffff4 	orhi	r2,r2,65535
   11394:	28800015 	stw	r2,0(r5)
	}

	return 0;
}
   11398:	0005883a 	mov	r2,zero
   1139c:	f800283a 	ret

000113a0 <alt_up_accelerometer_spi_read_y_axis>:
 * @return 0 for success or -1 for failure
 **/
int alt_up_accelerometer_spi_read_y_axis(alt_up_accelerometer_spi_dev *accel_spi, alt_32 *y_axis)
{
	// set the register address in the Address register
	IOWR_ALT_UP_ACCELEROMETER_SPI_ADDRESS(accel_spi->base, ACCELEROMETER_SPI_Y_AXIS_LOWER_BYTE & ALT_UP_ACCELEROMETER_SPI_ADDRESS_ADDR_MSK); 
   113a0:	20800a17 	ldw	r2,40(r4)
   113a4:	00c00d04 	movi	r3,52
   113a8:	10c00025 	stbio	r3,0(r2)

	// read data to the device Data register
	*(y_axis) = IORD_ALT_UP_ACCELEROMETER_SPI_DATA(accel_spi->base) & ALT_UP_ACCELEROMETER_SPI_DATA_DATA_MSK;
   113ac:	20800a17 	ldw	r2,40(r4)
   113b0:	10800063 	ldbuio	r2,1(r2)

	// set the register address in the Address register
	IOWR_ALT_UP_ACCELEROMETER_SPI_ADDRESS(accel_spi->base, ACCELEROMETER_SPI_Y_AXIS_UPPER_BYTE & ALT_UP_ACCELEROMETER_SPI_ADDRESS_ADDR_MSK); 
   113b4:	00c00d44 	movi	r3,53
{
	// set the register address in the Address register
	IOWR_ALT_UP_ACCELEROMETER_SPI_ADDRESS(accel_spi->base, ACCELEROMETER_SPI_Y_AXIS_LOWER_BYTE & ALT_UP_ACCELEROMETER_SPI_ADDRESS_ADDR_MSK); 

	// read data to the device Data register
	*(y_axis) = IORD_ALT_UP_ACCELEROMETER_SPI_DATA(accel_spi->base) & ALT_UP_ACCELEROMETER_SPI_DATA_DATA_MSK;
   113b8:	10803fcc 	andi	r2,r2,255
   113bc:	28800015 	stw	r2,0(r5)

	// set the register address in the Address register
	IOWR_ALT_UP_ACCELEROMETER_SPI_ADDRESS(accel_spi->base, ACCELEROMETER_SPI_Y_AXIS_UPPER_BYTE & ALT_UP_ACCELEROMETER_SPI_ADDRESS_ADDR_MSK); 
   113c0:	20800a17 	ldw	r2,40(r4)
   113c4:	10c00025 	stbio	r3,0(r2)

	// read data to the device Data register
	*(y_axis) += (IORD_ALT_UP_ACCELEROMETER_SPI_DATA(accel_spi->base) & ALT_UP_ACCELEROMETER_SPI_DATA_DATA_MSK) << 8;
   113c8:	20800a17 	ldw	r2,40(r4)
   113cc:	10800063 	ldbuio	r2,1(r2)
   113d0:	10803fcc 	andi	r2,r2,255
   113d4:	1006923a 	slli	r3,r2,8
   113d8:	28800017 	ldw	r2,0(r5)
   113dc:	1885883a 	add	r2,r3,r2

	if (*(y_axis) & 0x00008000)
   113e0:	10e0000c 	andi	r3,r2,32768
   113e4:	18000126 	beq	r3,zero,113ec <alt_up_accelerometer_spi_read_y_axis+0x4c>
	{
		*(y_axis) |= 0xFFFF0000;
   113e8:	10bffff4 	orhi	r2,r2,65535
   113ec:	28800015 	stw	r2,0(r5)
	}

	return 0;
}
   113f0:	0005883a 	mov	r2,zero
   113f4:	f800283a 	ret

000113f8 <alt_up_accelerometer_spi_read_z_axis>:
 * @return 0 for success or -1 for failure
 **/
int alt_up_accelerometer_spi_read_z_axis(alt_up_accelerometer_spi_dev *accel_spi, alt_32 *z_axis)
{
	// set the register address in the Address register
	IOWR_ALT_UP_ACCELEROMETER_SPI_ADDRESS(accel_spi->base, ACCELEROMETER_SPI_Z_AXIS_LOWER_BYTE & ALT_UP_ACCELEROMETER_SPI_ADDRESS_ADDR_MSK); 
   113f8:	20800a17 	ldw	r2,40(r4)
   113fc:	00c00d84 	movi	r3,54
   11400:	10c00025 	stbio	r3,0(r2)

	// read data to the device Data register
	*(z_axis) = IORD_ALT_UP_ACCELEROMETER_SPI_DATA(accel_spi->base) & ALT_UP_ACCELEROMETER_SPI_DATA_DATA_MSK;
   11404:	20800a17 	ldw	r2,40(r4)
   11408:	10800063 	ldbuio	r2,1(r2)

	// set the register address in the Address register
	IOWR_ALT_UP_ACCELEROMETER_SPI_ADDRESS(accel_spi->base, ACCELEROMETER_SPI_Z_AXIS_UPPER_BYTE & ALT_UP_ACCELEROMETER_SPI_ADDRESS_ADDR_MSK); 
   1140c:	00c00dc4 	movi	r3,55
{
	// set the register address in the Address register
	IOWR_ALT_UP_ACCELEROMETER_SPI_ADDRESS(accel_spi->base, ACCELEROMETER_SPI_Z_AXIS_LOWER_BYTE & ALT_UP_ACCELEROMETER_SPI_ADDRESS_ADDR_MSK); 

	// read data to the device Data register
	*(z_axis) = IORD_ALT_UP_ACCELEROMETER_SPI_DATA(accel_spi->base) & ALT_UP_ACCELEROMETER_SPI_DATA_DATA_MSK;
   11410:	10803fcc 	andi	r2,r2,255
   11414:	28800015 	stw	r2,0(r5)

	// set the register address in the Address register
	IOWR_ALT_UP_ACCELEROMETER_SPI_ADDRESS(accel_spi->base, ACCELEROMETER_SPI_Z_AXIS_UPPER_BYTE & ALT_UP_ACCELEROMETER_SPI_ADDRESS_ADDR_MSK); 
   11418:	20800a17 	ldw	r2,40(r4)
   1141c:	10c00025 	stbio	r3,0(r2)

	// read data to the device Data register
	*(z_axis) += (IORD_ALT_UP_ACCELEROMETER_SPI_DATA(accel_spi->base) & ALT_UP_ACCELEROMETER_SPI_DATA_DATA_MSK) << 8;
   11420:	20800a17 	ldw	r2,40(r4)
   11424:	10800063 	ldbuio	r2,1(r2)
   11428:	10803fcc 	andi	r2,r2,255
   1142c:	1006923a 	slli	r3,r2,8
   11430:	28800017 	ldw	r2,0(r5)
   11434:	1885883a 	add	r2,r3,r2

	if (*(z_axis) & 0x00008000)
   11438:	10e0000c 	andi	r3,r2,32768
   1143c:	18000126 	beq	r3,zero,11444 <alt_up_accelerometer_spi_read_z_axis+0x4c>
	{
		*(z_axis) |= 0xFFFF0000;
   11440:	10bffff4 	orhi	r2,r2,65535
   11444:	28800015 	stw	r2,0(r5)
	}

	return 0;
}
   11448:	0005883a 	mov	r2,zero
   1144c:	f800283a 	ret

00011450 <alt_dcache_flush_all>:
/*
 * alt_dcache_flush_all() is called to flush the entire data cache.
 */

void alt_dcache_flush_all (void)
{
   11450:	f800283a 	ret

00011454 <alt_dev_null_write>:
 */

static int alt_dev_null_write (alt_fd* fd, const char* ptr, int len)
{
  return len;
}
   11454:	3005883a 	mov	r2,r6
   11458:	f800283a 	ret

0001145c <alt_dev_llist_insert>:
{
  /*
   * check that the device exists, and that it has a valid name.
   */

  if (!dev || !dev->name)
   1145c:	20000226 	beq	r4,zero,11468 <alt_dev_llist_insert+0xc>
   11460:	20800217 	ldw	r2,8(r4)
   11464:	1000101e 	bne	r2,zero,114a8 <alt_dev_llist_insert+0x4c>
   11468:	d0a00a17 	ldw	r2,-32728(gp)
   1146c:	10000926 	beq	r2,zero,11494 <alt_dev_llist_insert+0x38>
/*
 *
 */

int alt_dev_llist_insert (alt_dev_llist* dev, alt_llist* list)
{
   11470:	deffff04 	addi	sp,sp,-4
   11474:	dfc00015 	stw	ra,0(sp)
   11478:	103ee83a 	callr	r2
   * check that the device exists, and that it has a valid name.
   */

  if (!dev || !dev->name)
  {
    ALT_ERRNO = EINVAL;
   1147c:	00c00584 	movi	r3,22
   11480:	10c00015 	stw	r3,0(r2)
    return -EINVAL;
   11484:	00bffa84 	movi	r2,-22
   */
  
  alt_llist_insert(list, &dev->llist);

  return 0;  
}
   11488:	dfc00017 	ldw	ra,0(sp)
   1148c:	dec00104 	addi	sp,sp,4
   11490:	f800283a 	ret
   11494:	d0a04504 	addi	r2,gp,-32492
   * check that the device exists, and that it has a valid name.
   */

  if (!dev || !dev->name)
  {
    ALT_ERRNO = EINVAL;
   11498:	00c00584 	movi	r3,22
   1149c:	10c00015 	stw	r3,0(r2)
    return -EINVAL;
   114a0:	00bffa84 	movi	r2,-22
   */
  
  alt_llist_insert(list, &dev->llist);

  return 0;  
}
   114a4:	f800283a 	ret

static ALT_INLINE void ALT_ALWAYS_INLINE alt_llist_insert(alt_llist* list, 
                alt_llist* entry)
{
  entry->previous = list;
  entry->next     = list->next;
   114a8:	28800017 	ldw	r2,0(r5)
 */

static ALT_INLINE void ALT_ALWAYS_INLINE alt_llist_insert(alt_llist* list, 
                alt_llist* entry)
{
  entry->previous = list;
   114ac:	21400115 	stw	r5,4(r4)
  entry->next     = list->next;
   114b0:	20800015 	stw	r2,0(r4)

  list->next->previous = entry;
   114b4:	28800017 	ldw	r2,0(r5)
   114b8:	11000115 	stw	r4,4(r2)
  list->next           = entry;
   114bc:	29000015 	stw	r4,0(r5)
   * register the device.
   */
  
  alt_llist_insert(list, &dev->llist);

  return 0;  
   114c0:	0005883a 	mov	r2,zero
   114c4:	f800283a 	ret

000114c8 <alt_find_dev>:
 * "name" must be an exact match for the devices registered name for a match to
 * be found.
 */
 
alt_dev* alt_find_dev(const char* name, alt_llist* llist)
{
   114c8:	defffb04 	addi	sp,sp,-20
   114cc:	dcc00315 	stw	r19,12(sp)
   114d0:	dc800215 	stw	r18,8(sp)
   114d4:	dc400115 	stw	r17,4(sp)
   114d8:	dc000015 	stw	r16,0(sp)
   114dc:	dfc00415 	stw	ra,16(sp)
   114e0:	2027883a 	mov	r19,r4
   114e4:	2823883a 	mov	r17,r5
  alt_dev* next = (alt_dev*) llist->next;
   114e8:	2c000017 	ldw	r16,0(r5)
  alt_32 len;

  len  = strlen(name) + 1;
   114ec:	00116d80 	call	116d8 <strlen>
   114f0:	14800044 	addi	r18,r2,1
  /*
   * Check each list entry in turn, until a match is found, or we reach the
   * end of the list (i.e. next winds up pointing back to the list head).
   */ 

  while (next != (alt_dev*) llist)
   114f4:	84400726 	beq	r16,r17,11514 <alt_find_dev+0x4c>
    /* 
     * memcmp() is used here rather than strcmp() in order to reduce the size
     * of the executable.
     */

    if (!memcmp (next->name, name, len))
   114f8:	81000217 	ldw	r4,8(r16)
   114fc:	900d883a 	mov	r6,r18
   11500:	980b883a 	mov	r5,r19
   11504:	00116a80 	call	116a8 <memcmp>
   11508:	10000426 	beq	r2,zero,1151c <alt_find_dev+0x54>
    {
      /* match found */

      return next;
    }
    next = (alt_dev*) next->llist.next;
   1150c:	84000017 	ldw	r16,0(r16)
   11510:	003ff806 	br	114f4 <__alt_data_end+0xffff14f4>
  }
  
  /* No match found */
  
  return NULL;
   11514:	0005883a 	mov	r2,zero
   11518:	00000106 	br	11520 <alt_find_dev+0x58>
   1151c:	8005883a 	mov	r2,r16
}
   11520:	dfc00417 	ldw	ra,16(sp)
   11524:	dcc00317 	ldw	r19,12(sp)
   11528:	dc800217 	ldw	r18,8(sp)
   1152c:	dc400117 	ldw	r17,4(sp)
   11530:	dc000017 	ldw	r16,0(sp)
   11534:	dec00504 	addi	sp,sp,20
   11538:	f800283a 	ret

0001153c <alt_icache_flush_all>:
/*
 * alt_icache_flush_all() is called to flush the entire instruction cache.
 */

void alt_icache_flush_all (void)
{
   1153c:	f800283a 	ret

00011540 <alt_alarm_stop>:
static ALT_INLINE alt_irq_context ALT_ALWAYS_INLINE 
       alt_irq_disable_all (void)
{
  alt_irq_context context;

  NIOS2_READ_STATUS (context);
   11540:	0007303a 	rdctl	r3,status

  NIOS2_WRITE_STATUS (context & ~NIOS2_STATUS_PIE_MSK);
   11544:	00bfff84 	movi	r2,-2
   11548:	1884703a 	and	r2,r3,r2
   1154c:	1001703a 	wrctl	status,r2
 * input argument is the element to remove.
 */
     
static ALT_INLINE void ALT_ALWAYS_INLINE alt_llist_remove(alt_llist* entry)
{
  entry->next->previous = entry->previous;
   11550:	21400117 	ldw	r5,4(r4)
   11554:	20800017 	ldw	r2,0(r4)
   11558:	11400115 	stw	r5,4(r2)
  entry->previous->next = entry->next;
   1155c:	21400117 	ldw	r5,4(r4)
   11560:	28800015 	stw	r2,0(r5)
  /* 
   * Set the entry to point to itself, so that any further calls to
   * alt_llist_remove() are harmless.
   */

  entry->previous = entry;
   11564:	21000115 	stw	r4,4(r4)
  entry->next     = entry;
   11568:	21000015 	stw	r4,0(r4)
  status &= ~NIOS2_STATUS_PIE_MSK;
  status |= (context & NIOS2_STATUS_PIE_MSK);
  
  NIOS2_WRITE_STATUS (status);
#else
  NIOS2_WRITE_STATUS (context);
   1156c:	1801703a 	wrctl	status,r3
   11570:	f800283a 	ret

00011574 <alt_tick>:

  alt_u32    next_callback;

  /* update the tick counter */

  _alt_nticks++;
   11574:	d0a04217 	ldw	r2,-32504(gp)
 * 
 * alt_tick() is expected to run at interrupt level.
 */

void alt_tick (void)
{
   11578:	defffb04 	addi	sp,sp,-20
   1157c:	dc000015 	stw	r16,0(sp)
  alt_alarm* next;
  alt_alarm* alarm = (alt_alarm*) alt_alarm_list.next;
   11580:	d4200b17 	ldw	r16,-32724(gp)

  alt_u32    next_callback;

  /* update the tick counter */

  _alt_nticks++;
   11584:	10800044 	addi	r2,r2,1
 * 
 * alt_tick() is expected to run at interrupt level.
 */

void alt_tick (void)
{
   11588:	dc800215 	stw	r18,8(sp)
   1158c:	dc400115 	stw	r17,4(sp)
   11590:	dfc00415 	stw	ra,16(sp)
   11594:	dcc00315 	stw	r19,12(sp)

  alt_u32    next_callback;

  /* update the tick counter */

  _alt_nticks++;
   11598:	d0a04215 	stw	r2,-32504(gp)

  /* process the registered callbacks */

  while (alarm != (alt_alarm*) &alt_alarm_list)
   1159c:	d4600b04 	addi	r17,gp,-32724
         * flag. This will prevent the subsequent tick event from causing
         * an alarm too early.
         */
        if(alarm->time < _alt_nticks)
        {
          alarm->rollover = 1;
   115a0:	04800044 	movi	r18,1

  _alt_nticks++;

  /* process the registered callbacks */

  while (alarm != (alt_alarm*) &alt_alarm_list)
   115a4:	84401a26 	beq	r16,r17,11610 <alt_tick+0x9c>
    /* 
     * Upon the tick-counter rolling over it is safe to clear the 
     * roll-over flag; once the flag is cleared this (or subsequnt)
     * tick events are enabled to generate an alarm event. 
     */
    if ((alarm->rollover) && (_alt_nticks == 0))
   115a8:	80800403 	ldbu	r2,16(r16)

  /* process the registered callbacks */

  while (alarm != (alt_alarm*) &alt_alarm_list)
  {
    next = (alt_alarm*) alarm->llist.next;
   115ac:	84c00017 	ldw	r19,0(r16)
    /* 
     * Upon the tick-counter rolling over it is safe to clear the 
     * roll-over flag; once the flag is cleared this (or subsequnt)
     * tick events are enabled to generate an alarm event. 
     */
    if ((alarm->rollover) && (_alt_nticks == 0))
   115b0:	10000326 	beq	r2,zero,115c0 <alt_tick+0x4c>
   115b4:	d0a04217 	ldw	r2,-32504(gp)
   115b8:	1000011e 	bne	r2,zero,115c0 <alt_tick+0x4c>
    {
      alarm->rollover = 0;
   115bc:	80000405 	stb	zero,16(r16)
    }
    
    /* if the alarm period has expired, make the callback */    
    if ((alarm->time <= _alt_nticks) && (alarm->rollover == 0))
   115c0:	d0e04217 	ldw	r3,-32504(gp)
   115c4:	80800217 	ldw	r2,8(r16)
   115c8:	18800f36 	bltu	r3,r2,11608 <alt_tick+0x94>
   115cc:	80800403 	ldbu	r2,16(r16)
   115d0:	10000d1e 	bne	r2,zero,11608 <alt_tick+0x94>
    {
      next_callback = alarm->callback (alarm->context);
   115d4:	80800317 	ldw	r2,12(r16)
   115d8:	81000517 	ldw	r4,20(r16)
   115dc:	103ee83a 	callr	r2

      /* deactivate the alarm if the return value is zero */

      if (next_callback == 0)
   115e0:	1000031e 	bne	r2,zero,115f0 <alt_tick+0x7c>
      {
        alt_alarm_stop (alarm);
   115e4:	8009883a 	mov	r4,r16
   115e8:	00115400 	call	11540 <alt_alarm_stop>
   115ec:	00000606 	br	11608 <alt_tick+0x94>
      }
      else
      {
        alarm->time += next_callback;
   115f0:	80c00217 	ldw	r3,8(r16)
   115f4:	10c5883a 	add	r2,r2,r3
        /* 
         * If the desired alarm time causes a roll-over, set the rollover
         * flag. This will prevent the subsequent tick event from causing
         * an alarm too early.
         */
        if(alarm->time < _alt_nticks)
   115f8:	d0e04217 	ldw	r3,-32504(gp)
      {
        alt_alarm_stop (alarm);
      }
      else
      {
        alarm->time += next_callback;
   115fc:	80800215 	stw	r2,8(r16)
        /* 
         * If the desired alarm time causes a roll-over, set the rollover
         * flag. This will prevent the subsequent tick event from causing
         * an alarm too early.
         */
        if(alarm->time < _alt_nticks)
   11600:	10c0012e 	bgeu	r2,r3,11608 <alt_tick+0x94>
        {
          alarm->rollover = 1;
   11604:	84800405 	stb	r18,16(r16)
 * 
 * alt_tick() is expected to run at interrupt level.
 */

void alt_tick (void)
{
   11608:	9821883a 	mov	r16,r19
   1160c:	003fe506 	br	115a4 <__alt_data_end+0xffff15a4>
  /* 
   * Update the operating system specific timer facilities.
   */

  ALT_OS_TIME_TICK();
}
   11610:	dfc00417 	ldw	ra,16(sp)
   11614:	dcc00317 	ldw	r19,12(sp)
   11618:	dc800217 	ldw	r18,8(sp)
   1161c:	dc400117 	ldw	r17,4(sp)
   11620:	dc000017 	ldw	r16,0(sp)
   11624:	dec00504 	addi	sp,sp,20
   11628:	f800283a 	ret

0001162c <altera_nios2_gen2_irq_init>:
 * To initialize the internal interrupt controller, just clear the IENABLE
 * register so that all possible IRQs are disabled.
 */
void altera_nios2_gen2_irq_init(void) 
{
    NIOS2_WRITE_IENABLE(0);
   1162c:	000170fa 	wrctl	ienable,zero
   11630:	f800283a 	ret

00011634 <alt_exception_cause_generated_bad_addr>:
 *         0: BADADDR is not valid
 */
int 
alt_exception_cause_generated_bad_addr(alt_exception_cause cause)
{
  switch (cause) {
   11634:	213ffe84 	addi	r4,r4,-6
   11638:	008003c4 	movi	r2,15
   1163c:	11001636 	bltu	r2,r4,11698 <alt_exception_cause_generated_bad_addr+0x64>
   11640:	200890ba 	slli	r4,r4,2
   11644:	00800074 	movhi	r2,1
   11648:	10859604 	addi	r2,r2,5720
   1164c:	2089883a 	add	r4,r4,r2
   11650:	20800017 	ldw	r2,0(r4)
   11654:	1000683a 	jmp	r2
   11658:	000116a0 	cmpeqi	zero,zero,1114
   1165c:	000116a0 	cmpeqi	zero,zero,1114
   11660:	00011698 	cmpnei	zero,zero,1114
   11664:	00011698 	cmpnei	zero,zero,1114
   11668:	00011698 	cmpnei	zero,zero,1114
   1166c:	000116a0 	cmpeqi	zero,zero,1114
   11670:	00011698 	cmpnei	zero,zero,1114
   11674:	00011698 	cmpnei	zero,zero,1114
   11678:	000116a0 	cmpeqi	zero,zero,1114
   1167c:	000116a0 	cmpeqi	zero,zero,1114
   11680:	00011698 	cmpnei	zero,zero,1114
   11684:	000116a0 	cmpeqi	zero,zero,1114
   11688:	00011698 	cmpnei	zero,zero,1114
   1168c:	00011698 	cmpnei	zero,zero,1114
   11690:	00011698 	cmpnei	zero,zero,1114
   11694:	000116a0 	cmpeqi	zero,zero,1114
  case NIOS2_EXCEPTION_ECC_DATA_ERR:
    return 1;

  case NIOS2_EXCEPTION_TLB_MISS:
  case NIOS2_EXCEPTION_ECC_TLB_ERR:
    return 0;
   11698:	0005883a 	mov	r2,zero
   1169c:	f800283a 	ret
  case NIOS2_EXCEPTION_MISALIGNED_TARGET_PC:
  case NIOS2_EXCEPTION_TLB_READ_PERM_VIOLATION:
  case NIOS2_EXCEPTION_TLB_WRITE_PERM_VIOLATION:
  case NIOS2_EXCEPTION_MPU_DATA_REGION_VIOLATION:
  case NIOS2_EXCEPTION_ECC_DATA_ERR:
    return 1;
   116a0:	00800044 	movi	r2,1
    return 0;

  default:
    return 0;
  }
}
   116a4:	f800283a 	ret

000116a8 <memcmp>:
   116a8:	218d883a 	add	r6,r4,r6
   116ac:	21800826 	beq	r4,r6,116d0 <memcmp+0x28>
   116b0:	20800003 	ldbu	r2,0(r4)
   116b4:	28c00003 	ldbu	r3,0(r5)
   116b8:	10c00226 	beq	r2,r3,116c4 <memcmp+0x1c>
   116bc:	10c5c83a 	sub	r2,r2,r3
   116c0:	f800283a 	ret
   116c4:	21000044 	addi	r4,r4,1
   116c8:	29400044 	addi	r5,r5,1
   116cc:	003ff706 	br	116ac <__alt_data_end+0xffff16ac>
   116d0:	0005883a 	mov	r2,zero
   116d4:	f800283a 	ret

000116d8 <strlen>:
   116d8:	2005883a 	mov	r2,r4
   116dc:	10c00007 	ldb	r3,0(r2)
   116e0:	18000226 	beq	r3,zero,116ec <strlen+0x14>
   116e4:	10800044 	addi	r2,r2,1
   116e8:	003ffc06 	br	116dc <__alt_data_end+0xffff16dc>
   116ec:	1105c83a 	sub	r2,r2,r4
   116f0:	f800283a 	ret
