
CodeCracker.elf:     file format elf32-littlenios2
CodeCracker.elf
architecture: nios2:r1, flags 0x00000112:
EXEC_P, HAS_SYMS, D_PAGED
start address 0x00010180

Program Header:
    LOAD off    0x00001000 vaddr 0x00010000 paddr 0x00010000 align 2**12
         filesz 0x00000020 memsz 0x00000020 flags r-x
    LOAD off    0x00001020 vaddr 0x00010020 paddr 0x00010020 align 2**12
         filesz 0x000024f0 memsz 0x000024f0 flags r-x
    LOAD off    0x00003510 vaddr 0x00012510 paddr 0x000126b0 align 2**12
         filesz 0x000001a0 memsz 0x000001a0 flags rw-
    LOAD off    0x00003850 vaddr 0x00012850 paddr 0x00012850 align 2**12
         filesz 0x00000000 memsz 0x000001a4 flags rw-

Sections:
Idx Name          Size      VMA       LMA       File off  Algn
  0 .entry        00000020  00010000  00010000  00001000  2**5
                  CONTENTS, ALLOC, LOAD, READONLY, CODE
  1 .exceptions   00000160  00010020  00010020  00001020  2**2
                  CONTENTS, ALLOC, LOAD, READONLY, CODE
  2 .text         000021c0  00010180  00010180  00001180  2**2
                  CONTENTS, ALLOC, LOAD, READONLY, CODE
  3 .rodata       000001d0  00012340  00012340  00003340  2**2
                  CONTENTS, ALLOC, LOAD, READONLY, DATA
  4 .rwdata       000001a0  00012510  000126b0  00003510  2**2
                  CONTENTS, ALLOC, LOAD, DATA, SMALL_DATA
  5 .bss          000001a4  00012850  00012850  00003850  2**2
                  ALLOC, SMALL_DATA
  6 .onchip_memory 00000000  000129f4  000129f4  000036b0  2**0
                  CONTENTS
  7 .comment      00000023  00000000  00000000  000036b0  2**0
                  CONTENTS, READONLY
  8 .debug_aranges 000005b8  00000000  00000000  000036d8  2**3
                  CONTENTS, READONLY, DEBUGGING
  9 .debug_info   0000705f  00000000  00000000  00003c90  2**0
                  CONTENTS, READONLY, DEBUGGING
 10 .debug_abbrev 00002a5f  00000000  00000000  0000acef  2**0
                  CONTENTS, READONLY, DEBUGGING
 11 .debug_line   00002fbe  00000000  00000000  0000d74e  2**0
                  CONTENTS, READONLY, DEBUGGING
 12 .debug_frame  00000834  00000000  00000000  0001070c  2**2
                  CONTENTS, READONLY, DEBUGGING
 13 .debug_str    00001f36  00000000  00000000  00010f40  2**0
                  CONTENTS, READONLY, DEBUGGING
 14 .debug_loc    000030e1  00000000  00000000  00012e76  2**0
                  CONTENTS, READONLY, DEBUGGING
 15 .debug_alt_sim_info 00000040  00000000  00000000  00015f58  2**2
                  CONTENTS, READONLY, DEBUGGING
 16 .debug_ranges 00000620  00000000  00000000  00015f98  2**3
                  CONTENTS, READONLY, DEBUGGING
 17 .thread_model 00000003  00000000  00000000  00018056  2**0
                  CONTENTS, READONLY
 18 .cpu          00000003  00000000  00000000  00018059  2**0
                  CONTENTS, READONLY
 19 .qsys         00000001  00000000  00000000  0001805c  2**0
                  CONTENTS, READONLY
 20 .simulation_enabled 00000001  00000000  00000000  0001805d  2**0
                  CONTENTS, READONLY
 21 .sysid_hash   00000004  00000000  00000000  0001805e  2**0
                  CONTENTS, READONLY
 22 .sysid_base   00000004  00000000  00000000  00018062  2**0
                  CONTENTS, READONLY
 23 .sysid_time   00000004  00000000  00000000  00018066  2**0
                  CONTENTS, READONLY
 24 .stderr_dev   00000009  00000000  00000000  0001806a  2**0
                  CONTENTS, READONLY
 25 .stdin_dev    00000009  00000000  00000000  00018073  2**0
                  CONTENTS, READONLY
 26 .stdout_dev   00000009  00000000  00000000  0001807c  2**0
                  CONTENTS, READONLY
 27 .sopc_system_name 0000000b  00000000  00000000  00018085  2**0
                  CONTENTS, READONLY
 28 .quartus_project_dir 0000005a  00000000  00000000  00018090  2**0
                  CONTENTS, READONLY
 29 .jdi          00004920  00000000  00000000  000180ea  2**0
                  CONTENTS, READONLY
 30 .sopcinfo     00078340  00000000  00000000  0001ca0a  2**0
                  CONTENTS, READONLY
SYMBOL TABLE:
00010000 l    d  .entry	00000000 .entry
00010020 l    d  .exceptions	00000000 .exceptions
00010180 l    d  .text	00000000 .text
00012340 l    d  .rodata	00000000 .rodata
00012510 l    d  .rwdata	00000000 .rwdata
00012850 l    d  .bss	00000000 .bss
000129f4 l    d  .onchip_memory	00000000 .onchip_memory
00000000 l    d  .comment	00000000 .comment
00000000 l    d  .debug_aranges	00000000 .debug_aranges
00000000 l    d  .debug_info	00000000 .debug_info
00000000 l    d  .debug_abbrev	00000000 .debug_abbrev
00000000 l    d  .debug_line	00000000 .debug_line
00000000 l    d  .debug_frame	00000000 .debug_frame
00000000 l    d  .debug_str	00000000 .debug_str
00000000 l    d  .debug_loc	00000000 .debug_loc
00000000 l    d  .debug_alt_sim_info	00000000 .debug_alt_sim_info
00000000 l    d  .debug_ranges	00000000 .debug_ranges
00000000 l    df *ABS*	00000000 ../CodeCracker_bsp//obj/HAL/src/crt0.o
000101b8 l       .text	00000000 alt_after_alt_main
00000000 l    df *ABS*	00000000 alt_irq_handler.c
00000000 l    df *ABS*	00000000 alt_instruction_exception_entry.c
00000000 l    df *ABS*	00000000 hello_world_small.c
0001287c l     O .bss	00000078 xv.3573
0001238c l     O .rodata	00000078 h.3571
00000000 l    df *ABS*	00000000 addsf3.c
00000000 l    df *ABS*	00000000 mulsf3.c
00000000 l    df *ABS*	00000000 fixsfsi.c
00000000 l    df *ABS*	00000000 floatsisf.c
00000000 l    df *ABS*	00000000 libgcc2.c
00000000 l    df *ABS*	00000000 lib2-mul.c
00000000 l    df *ABS*	00000000 libgcc2.c
00000000 l    df *ABS*	00000000 memset.c
00000000 l    df *ABS*	00000000 printf.c
00000000 l    df *ABS*	00000000 puts.c
00000000 l    df *ABS*	00000000 strcat.c
00000000 l    df *ABS*	00000000 strlen.c
00000000 l    df *ABS*	00000000 vfprintf.c
00011390 l     F .text	0000006c print_repeat
00000000 l    df *ABS*	00000000 fvwrite_small_dev.c
00000000 l    df *ABS*	00000000 impure.c
00012510 l     O .rwdata	000000e0 impure_data
00000000 l    df *ABS*	00000000 writer.c
00000000 l    df *ABS*	00000000 int_errno.c
00000000 l    df *ABS*	00000000 lib2-divmod.c
00000000 l    df *ABS*	00000000 alt_irq_register.c
00000000 l    df *ABS*	00000000 alt_irq_vars.c
00000000 l    df *ABS*	00000000 alt_load.c
00000000 l    df *ABS*	00000000 alt_main.c
00000000 l    df *ABS*	00000000 alt_times.c
00000000 l    df *ABS*	00000000 alt_usleep.c
00000000 l    df *ABS*	00000000 alt_write.c
00000000 l    df *ABS*	00000000 alt_sys_init.c
000125f0 l     O .rwdata	0000002c accelerometer_spi
00000000 l    df *ABS*	00000000 altera_avalon_jtag_uart_write.c
00000000 l    df *ABS*	00000000 altera_up_avalon_accelerometer_spi.c
00000000 l    df *ABS*	00000000 alt_busy_sleep.c
00000000 l    df *ABS*	00000000 alt_dcache_flush_all.c
00000000 l    df *ABS*	00000000 alt_dev.c
000120bc l     F .text	00000008 alt_dev_null_write
00000000 l    df *ABS*	00000000 alt_dev_llist_insert.c
00000000 l    df *ABS*	00000000 alt_errno.c
00000000 l    df *ABS*	00000000 alt_find_dev.c
00000000 l    df *ABS*	00000000 alt_icache_flush_all.c
00000000 l    df *ABS*	00000000 alt_tick.c
00000000 l    df *ABS*	00000000 altera_nios2_gen2_irq.c
00000000 l    df *ABS*	00000000 memcmp.c
00012878 g     O .bss	00000004 alt_instruction_exception_handler
00011d7c g     F .text	0000002c alt_main
0001023c g     F .text	00000014 led_write
000112a4 g     F .text	00000080 _puts_r
000128f4 g     O .bss	00000100 alt_irq
000126b0 g       *ABS*	00000000 __flash_rwdata_start
00011258 g     F .text	0000004c printf
00010fdc g     F .text	00000070 .hidden __fixsfsi
000101bc g     F .text	00000080 sys_timer_isr
00012674 g     O .rwdata	00000004 FLATHIGH
0001268c g     O .rwdata	00000004 jtag_uart
00012294 g     F .text	00000008 altera_nios2_gen2_irq_init
00010000 g     F .entry	0000000c __reset
00011da8 g     F .text	00000060 times
000102b4 g     F .text	0000000c is_flat
00011f28 g     F .text	00000058 alt_up_accelerometer_spi_read_x_axis
00010020 g       *ABS*	00000000 __flash_exceptions_start
0001285c g     O .bss	00000004 errno
00012868 g     O .bss	00000004 alt_argv
0001a674 g       *ABS*	00000000 _gp
00011e08 g     F .text	00000004 usleep
0001261c g     O .rwdata	00000030 alt_fd_list
00012130 g     F .text	00000074 alt_find_dev
00011324 g     F .text	00000014 puts
0001229c g     F .text	00000074 alt_exception_cause_generated_bad_addr
0001121c g     F .text	0000003c _printf_r
00011b4c g     F .text	00000064 .hidden __udivsi3
00012678 g     O .rwdata	00000004 FLATLOW
00012690 g     O .rwdata	00000004 alt_max_fd
00011c08 g     F .text	00000094 alt_irq_register
0001267c g     O .rwdata	00000004 _global_impure_ptr
000129f4 g       *ABS*	00000000 __bss_end
000121dc g     F .text	000000b8 alt_tick
000121a8 g     F .text	00000034 alt_alarm_stop
00012860 g     O .bss	00000004 alt_irq_active
000100fc g     F .exceptions	00000060 alt_irq_handler
0001264c g     O .rwdata	00000028 alt_dev_null
000120b8 g     F .text	00000004 alt_dcache_flush_all
000126b0 g       *ABS*	00000000 __ram_rwdata_end
000102c0 g     F .text	00000070 timer_init
00010000 g       *ABS*	00000000 __alt_mem_onchip_memory
00012694 g     O .rwdata	00000008 alt_dev_list
00011e0c g     F .text	00000060 write
00012510 g       *ABS*	00000000 __ram_rodata_end
00011338 g     F .text	0000003c strcat
00012854 g     O .bss	00000001 led
00011bb0 g     F .text	00000058 .hidden __umodsi3
000129f4 g       *ABS*	00000000 end
0001015c g     F .exceptions	00000024 alt_instruction_exception_entry
00020000 g       *ABS*	00000000 __alt_stack_pointer
00011170 g     F .text	00000064 .hidden __clzsi2
00011e9c g     F .text	00000034 altera_avalon_jtag_uart_write
000113fc g     F .text	0000052c ___vfprintf_internal_r
00010180 g     F .text	0000003c _start
00012858 g     O .bss	00000004 level
00012874 g     O .bss	00000004 _alt_tick_rate
00012870 g     O .bss	00000004 _alt_nticks
00011e8c g     F .text	00000010 alt_sys_init
00011ed8 g     F .text	00000014 alt_up_accelerometer_spi_read_address_register
0001104c g     F .text	00000124 .hidden __floatsisf
000111d4 g     F .text	00000028 .hidden __mulsi3
00012510 g       *ABS*	00000000 __ram_rwdata_start
00012340 g       *ABS*	00000000 __ram_rodata_start
00012030 g     F .text	00000088 alt_busy_sleep
00011f80 g     F .text	00000058 alt_up_accelerometer_spi_read_y_axis
00012310 g     F .text	00000030 memcmp
000129f4 g       *ABS*	00000000 __alt_stack_base
000120c4 g     F .text	0000006c alt_dev_llist_insert
00011944 g     F .text	000000b8 __sfvwrite_small_dev
00012850 g       *ABS*	00000000 __bss_start
000111fc g     F .text	00000020 memset
000104c8 g     F .text	0000021c main
00012864 g     O .bss	00000004 alt_envp
00012688 g     O .rwdata	00000004 uart_0
000126a4 g     O .rwdata	00000004 alt_errno
00011a54 g     F .text	00000084 .hidden __divsi3
00010bac g     F .text	00000430 .hidden __mulsf3
00012340 g       *ABS*	00000000 __flash_rodata_start
00011e6c g     F .text	00000020 alt_irq_init
00012404 g     O .rodata	00000100 .hidden __clz_tab
000119fc g     F .text	00000058 _write_r
00010250 g     F .text	00000030 led_response
00012680 g     O .rwdata	00000004 _impure_ptr
0001286c g     O .bss	00000004 alt_argc
00010020 g       .exceptions	00000000 alt_irq_entry
00012850 g     O .bss	00000001 pwm
0001269c g     O .rwdata	00000008 alt_fs_list
00010020 g       *ABS*	00000000 __ram_exceptions_start
00011ed0 g     F .text	00000008 alt_up_accelerometer_spi_open_dev
000126b0 g       *ABS*	00000000 _edata
000129f4 g       *ABS*	00000000 _end
00010180 g       *ABS*	00000000 __ram_exceptions_end
00011ad8 g     F .text	00000074 .hidden __modsi3
00011fd8 g     F .text	00000058 alt_up_accelerometer_spi_read_z_axis
00020000 g       *ABS*	00000000 __alt_data_end
00010020 g     F .exceptions	00000000 alt_exception
00010280 g     F .text	00000034 convert_read
0001000c g       .entry	00000000 _exit
00011eec g     F .text	00000020 alt_up_accelerometer_spi_read
00011f0c g     F .text	0000001c alt_up_accelerometer_spi_write
00011374 g     F .text	0000001c strlen
000121a4 g     F .text	00000004 alt_icache_flush_all
00012684 g     O .rwdata	00000004 alt_priority_mask
00010330 g     F .text	00000198 FIR
00011928 g     F .text	0000001c __vfprintf_internal
000126a8 g     O .rwdata	00000008 alt_alarm_list
000106e4 g     F .text	000004c8 .hidden __addsf3
00011c9c g     F .text	000000e0 alt_load



Disassembly of section .entry:

00010000 <__reset>:
 * Jump to the _start entry point in the .text section if reset code
 * is allowed or if optimizing for RTL simulation.
 */
#if defined(ALT_ALLOW_CODE_AT_RESET) || defined(ALT_SIM_OPTIMIZE)
    /* Jump to the _start entry point in the .text section. */
    movhi r1, %hi(_start)
   10000:	00400074 	movhi	at,1
    ori r1, r1, %lo(_start)
   10004:	08406014 	ori	at,at,384
    jmp r1
   10008:	0800683a 	jmp	at

0001000c <_exit>:
	...

Disassembly of section .exceptions:

00010020 <alt_exception>:

#else /* ALT_EXCEPTION_STACK disabled */
        /* 
         * Reserve space on normal stack for registers about to be pushed.
         */
        addi  sp, sp, -76
   10020:	deffed04 	addi	sp,sp,-76
         * documentation for details).
         *
         * Leave a gap in the stack frame at 4(sp) for the muldiv handler to
         * store zero into.
         */
        stw   ra,  0(sp)
   10024:	dfc00015 	stw	ra,0(sp)
        stw   r1,   8(sp)
   10028:	d8400215 	stw	at,8(sp)
        stw   r2,  12(sp)
   1002c:	d8800315 	stw	r2,12(sp)
        stw   r3,  16(sp)
   10030:	d8c00415 	stw	r3,16(sp)
        stw   r4,  20(sp)
   10034:	d9000515 	stw	r4,20(sp)
        stw   r5,  24(sp)
   10038:	d9400615 	stw	r5,24(sp)
        stw   r6,  28(sp)
   1003c:	d9800715 	stw	r6,28(sp)
        stw   r7,  32(sp)
   10040:	d9c00815 	stw	r7,32(sp)
        rdctl r5, estatus   /* Read early to avoid usage stall */
   10044:	000b307a 	rdctl	r5,estatus
        stw   r8,  36(sp)
   10048:	da000915 	stw	r8,36(sp)
        stw   r9,  40(sp)
   1004c:	da400a15 	stw	r9,40(sp)
        stw   r10, 44(sp)
   10050:	da800b15 	stw	r10,44(sp)
        stw   r11, 48(sp)
   10054:	dac00c15 	stw	r11,48(sp)
        stw   r12, 52(sp)
   10058:	db000d15 	stw	r12,52(sp)
        stw   r13, 56(sp)
   1005c:	db400e15 	stw	r13,56(sp)
        stw   r14, 60(sp)
   10060:	db800f15 	stw	r14,60(sp)
        stw   r15, 64(sp)
   10064:	dbc01015 	stw	r15,64(sp)
        /*
         * ea-4 contains the address of the instruction being executed
         * when the exception occured. For interrupt exceptions, we will
         * will be re-issue the isntruction. Store it in 72(sp)
         */
        stw   r5,  68(sp)  /* estatus */
   10068:	d9401115 	stw	r5,68(sp)
        addi  r15, ea, -4  /* instruction that caused exception */
   1006c:	ebffff04 	addi	r15,ea,-4
        stw   r15,  72(sp)
   10070:	dbc01215 	stw	r15,72(sp)
#else
        /*
         * Test to see if the exception was a software exception or caused 
         * by an external interrupt, and vector accordingly.
         */
        rdctl r4, ipending
   10074:	0009313a 	rdctl	r4,ipending
        andi  r2, r5, 1
   10078:	2880004c 	andi	r2,r5,1
        beq   r2, zero, .Lnot_irq
   1007c:	10000326 	beq	r2,zero,1008c <alt_exception+0x6c>
        beq   r4, zero, .Lnot_irq
   10080:	20000226 	beq	r4,zero,1008c <alt_exception+0x6c>
        /*
         * Now that all necessary registers have been preserved, call 
         * alt_irq_handler() to process the interrupts.
         */

        call alt_irq_handler
   10084:	00100fc0 	call	100fc <alt_irq_handler>

        .section .exceptions.irqreturn, "xa"

        br    .Lexception_exit
   10088:	00000706 	br	100a8 <alt_exception+0x88>
         * upon completion, so we write ea (address of instruction *after*
         * the one where the exception occured) into 72(sp). The actual
         * instruction that caused the exception is written in r2, which these
         * handlers will utilize.
         */
        stw ea, 72(sp) /* EA is PC+4 so will skip over instruction causing exception */
   1008c:	df401215 	stw	ea,72(sp)
.Lunknown_16bit:
        addi.n r4, r4, 2 /* Need PC+2 to skip over instruction causing exception */
        stw r4, 72(sp)

#else /* CDX is not Enabled and all instructions are 32bits */
        ldw r2, -4(ea) /* Instruction value that caused exception */
   10090:	e8bfff17 	ldw	r2,-4(ea)
         * debugger is present) or go into an infinite loop since the
         * handling behavior is undefined; in that case we will not return here.
         */

        /* Load exception-causing address as first argument (r4) */
        addi   r4, ea, -4
   10094:	e93fff04 	addi	r4,ea,-4

        /* Call the instruction-exception entry */
        call   alt_instruction_exception_entry
   10098:	001015c0 	call	1015c <alt_instruction_exception_entry>
         * instruction
         *
         * Return code was 0: Skip. The instruction after the exception is
         * already stored in 72(sp).
         */
        bne   r2, r0, .Lexception_exit
   1009c:	1000021e 	bne	r2,zero,100a8 <alt_exception+0x88>

        /*
         * Otherwise, modify 72(sp) to re-issue the instruction that caused the
         * exception.
         */
        addi  r15, ea, -4  /* instruction that caused exception */
   100a0:	ebffff04 	addi	r15,ea,-4
        stw   r15,  72(sp)
   100a4:	dbc01215 	stw	r15,72(sp)
        /* 
         * Restore the saved registers, so that all general purpose registers 
         * have been restored to their state at the time the interrupt occured.
         */

        ldw   r5,  68(sp)
   100a8:	d9401117 	ldw	r5,68(sp)
        ldw   ea,  72(sp)  /* This becomes the PC once eret is executed */
   100ac:	df401217 	ldw	ea,72(sp)
        ldw   ra,   0(sp)
   100b0:	dfc00017 	ldw	ra,0(sp)

        wrctl estatus, r5
   100b4:	2801707a 	wrctl	estatus,r5

        ldw   r1,   8(sp)
   100b8:	d8400217 	ldw	at,8(sp)
        ldw   r2,  12(sp)
   100bc:	d8800317 	ldw	r2,12(sp)
        ldw   r3,  16(sp)
   100c0:	d8c00417 	ldw	r3,16(sp)
        ldw   r4,  20(sp)
   100c4:	d9000517 	ldw	r4,20(sp)
        ldw   r5,  24(sp)
   100c8:	d9400617 	ldw	r5,24(sp)
        ldw   r6,  28(sp)
   100cc:	d9800717 	ldw	r6,28(sp)
        ldw   r7,  32(sp)
   100d0:	d9c00817 	ldw	r7,32(sp)

#if defined(ALT_EXCEPTION_STACK) && defined(ALT_STACK_CHECK)
        ldw   et, %gprel(alt_exception_old_stack_limit)(gp)
#endif

        ldw   r8,  36(sp)
   100d4:	da000917 	ldw	r8,36(sp)
        ldw   r9,  40(sp)
   100d8:	da400a17 	ldw	r9,40(sp)
        ldw   r10, 44(sp)
   100dc:	da800b17 	ldw	r10,44(sp)
        ldw   r11, 48(sp)
   100e0:	dac00c17 	ldw	r11,48(sp)
        ldw   r12, 52(sp)
   100e4:	db000d17 	ldw	r12,52(sp)
        ldw   r13, 56(sp)
   100e8:	db400e17 	ldw	r13,56(sp)
        ldw   r14, 60(sp)
   100ec:	db800f17 	ldw	r14,60(sp)
        ldw   r15, 64(sp)
   100f0:	dbc01017 	ldw	r15,64(sp)
        stw   et, %gprel(alt_stack_limit_value)(gp)
        stw   zero, %gprel(alt_exception_old_stack_limit)(gp)
#endif /* ALT_STACK_CHECK */
        ldw   sp,  76(sp)
#else /* ALT_EXCEPTION_STACK disabled */
        addi  sp, sp, 76
   100f4:	dec01304 	addi	sp,sp,76

        /*
         * Return to the interrupted instruction.
         */

        eret
   100f8:	ef80083a 	eret

000100fc <alt_irq_handler>:
 * instruction is present if the macro ALT_CI_INTERRUPT_VECTOR defined.
 */

void alt_irq_handler (void) __attribute__ ((section (".exceptions")));
void alt_irq_handler (void)
{
   100fc:	defffe04 	addi	sp,sp,-8
   10100:	dfc00115 	stw	ra,4(sp)
   10104:	dc000015 	stw	r16,0(sp)
#ifndef NIOS2_EIC_PRESENT
static ALT_INLINE alt_u32 ALT_ALWAYS_INLINE alt_irq_pending (void)
{
  alt_u32 active;

  NIOS2_READ_IPENDING (active);
   10108:	0007313a 	rdctl	r3,ipending
      if (active & mask)
      { 
#ifdef ALT_ENHANCED_INTERRUPT_API_PRESENT
        alt_irq[i].handler(alt_irq[i].context); 
#else
        alt_irq[i].handler(alt_irq[i].context, i); 
   1010c:	04000074 	movhi	r16,1
   10110:	840a3d04 	addi	r16,r16,10484

  active = alt_irq_pending ();

  do
  {
    i = 0;
   10114:	000b883a 	mov	r5,zero
    mask = 1;
   10118:	00800044 	movi	r2,1
     * called to clear the interrupt condition.
     */

    do
    {
      if (active & mask)
   1011c:	1888703a 	and	r4,r3,r2
   10120:	20000b26 	beq	r4,zero,10150 <alt_irq_handler+0x54>
      { 
#ifdef ALT_ENHANCED_INTERRUPT_API_PRESENT
        alt_irq[i].handler(alt_irq[i].context); 
#else
        alt_irq[i].handler(alt_irq[i].context, i); 
   10124:	280490fa 	slli	r2,r5,3
   10128:	8085883a 	add	r2,r16,r2
   1012c:	10c00017 	ldw	r3,0(r2)
   10130:	11000117 	ldw	r4,4(r2)
   10134:	183ee83a 	callr	r3
   10138:	0007313a 	rdctl	r3,ipending

    } while (1);

    active = alt_irq_pending ();
    
  } while (active);
   1013c:	183ff51e 	bne	r3,zero,10114 <__alt_data_end+0xffff0114>
  /*
   * Notify the operating system that interrupt processing is complete.
   */ 

  ALT_OS_INT_EXIT();
}
   10140:	dfc00117 	ldw	ra,4(sp)
   10144:	dc000017 	ldw	r16,0(sp)
   10148:	dec00204 	addi	sp,sp,8
   1014c:	f800283a 	ret
#else
        alt_irq[i].handler(alt_irq[i].context, i); 
#endif
        break;
      }
      mask <<= 1;
   10150:	1085883a 	add	r2,r2,r2
      i++;
   10154:	29400044 	addi	r5,r5,1

    } while (1);
   10158:	003ff006 	br	1011c <__alt_data_end+0xffff011c>

0001015c <alt_instruction_exception_entry>:
#else
  cause = NIOS2_EXCEPTION_CAUSE_NOT_PRESENT;
  badaddr = 0;
#endif /* NIOS2_HAS_EXTRA_EXCEPTION_INFO */

  if(alt_instruction_exception_handler) {
   1015c:	d0a08117 	ldw	r2,-32252(gp)
   10160:	10000426 	beq	r2,zero,10174 <alt_instruction_exception_entry+0x18>
     * Call handler. Its return value indicates whether the exception-causing
     * instruction should be re-issued. The code that called us,
     * alt_eceptions_entry.S, will look at this value and adjust the ea
     * register as necessary
     */
    return alt_instruction_exception_handler(cause, exception_pc, badaddr);
   10164:	200b883a 	mov	r5,r4
   10168:	000d883a 	mov	r6,zero
   1016c:	013fffc4 	movi	r4,-1
   10170:	1000683a 	jmp	r2
   *    (a peripheral which negates its interrupt output before its
   *    interrupt handler has been executed will cause spurious interrupts)
   */
  else {
#ifdef NIOS2_HAS_DEBUG_STUB
    NIOS2_BREAK();
   10174:	003da03a 	break	0
#endif /* NIOS2_HAS_DEBUG_STUB */
  }

  /* We should not get here. Remove compiler warning. */
  return NIOS2_EXCEPTION_RETURN_REISSUE_INST;
}
   10178:	0005883a 	mov	r2,zero
   1017c:	f800283a 	ret

Disassembly of section .text:

00010180 <_start>:

    /*
     * Now that the caches are initialized, set up the stack pointer and global pointer.
     * The values provided by the linker are assumed to be correctly aligned.
     */
    movhi sp, %hi(__alt_stack_pointer)
   10180:	06c000b4 	movhi	sp,2
    ori sp, sp, %lo(__alt_stack_pointer)
   10184:	dec00014 	ori	sp,sp,0
    movhi gp, %hi(_gp)
   10188:	06800074 	movhi	gp,1
    ori gp, gp, %lo(_gp)
   1018c:	d6a99d14 	ori	gp,gp,42612
 */
#ifndef ALT_SIM_OPTIMIZE
    /* Log that the BSS is about to be cleared. */
    ALT_LOG_PUTS(alt_log_msg_bss)

    movhi r2, %hi(__bss_start)
   10190:	00800074 	movhi	r2,1
    ori r2, r2, %lo(__bss_start)
   10194:	108a1414 	ori	r2,r2,10320

    movhi r3, %hi(__bss_end)
   10198:	00c00074 	movhi	r3,1
    ori r3, r3, %lo(__bss_end)
   1019c:	18ca7d14 	ori	r3,r3,10740

    beq r2, r3, 1f
   101a0:	10c00326 	beq	r2,r3,101b0 <_start+0x30>

0:
    stw zero, (r2)
   101a4:	10000015 	stw	zero,0(r2)
    addi r2, r2, 4
   101a8:	10800104 	addi	r2,r2,4
    bltu r2, r3, 0b
   101ac:	10fffd36 	bltu	r2,r3,101a4 <__alt_data_end+0xffff01a4>
     * section aren't defined until alt_load() has been called).
     */
    mov   et, zero
#endif

    call alt_load
   101b0:	0011c9c0 	call	11c9c <alt_load>

    /* Log that alt_main is about to be called. */
    ALT_LOG_PUTS(alt_log_msg_alt_main)

    /* Call the C entry point. It should never return. */
    call alt_main
   101b4:	0011d7c0 	call	11d7c <alt_main>

000101b8 <alt_after_alt_main>:

    /* Wait in infinite loop in case alt_main does return. */
alt_after_alt_main:
    br alt_after_alt_main
   101b8:	003fff06 	br	101b8 <__alt_data_end+0xffff01b8>

000101bc <sys_timer_isr>:
}



void sys_timer_isr() {
    IOWR_ALTERA_AVALON_TIMER_STATUS(TIMER_BASE, 0);
   101bc:	008000b4 	movhi	r2,2
   101c0:	10840804 	addi	r2,r2,4128
   101c4:	10000035 	stwio	zero,0(r2)

    if (pwm < abs(level)) {
   101c8:	d0a07917 	ldw	r2,-32284(gp)
   101cc:	d1607707 	ldb	r5,-32292(gp)
   101d0:	1009883a 	mov	r4,r2
   101d4:	1000010e 	bge	r2,zero,101dc <sys_timer_isr+0x20>
   101d8:	0089c83a 	sub	r4,zero,r2
   101dc:	00c000b4 	movhi	r3,2
   101e0:	18c43004 	addi	r3,r3,4288
   101e4:	2900080e 	bge	r5,r4,10208 <sys_timer_isr+0x4c>

        if (level < 0) {
   101e8:	1000040e 	bge	r2,zero,101fc <sys_timer_isr+0x40>
alt_8 pwm = 0;
alt_u8 led;
int level;

void led_write(alt_u8 led_pattern) {
    IOWR(LED_BASE, 0, led_pattern);
   101ec:	d0a07803 	ldbu	r2,-32288(gp)
   101f0:	1085883a 	add	r2,r2,r2
   101f4:	10803fcc 	andi	r2,r2,255
   101f8:	00000406 	br	1020c <sys_timer_isr+0x50>
   101fc:	d0a07803 	ldbu	r2,-32288(gp)
   10200:	1004d07a 	srli	r2,r2,1
   10204:	00000106 	br	1020c <sys_timer_isr+0x50>
   10208:	d0a07803 	ldbu	r2,-32288(gp)
   1020c:	18800035 	stwio	r2,0(r3)

    } else {
        led_write(led);
    }

    if (pwm > PWM_PERIOD) {
   10210:	d0a07703 	ldbu	r2,-32292(gp)
   10214:	01000404 	movi	r4,16
   10218:	10c03fcc 	andi	r3,r2,255
   1021c:	18c0201c 	xori	r3,r3,128
   10220:	18ffe004 	addi	r3,r3,-128
   10224:	20c0020e 	bge	r4,r3,10230 <sys_timer_isr+0x74>
        pwm = 0;
   10228:	d0207705 	stb	zero,-32292(gp)
   1022c:	f800283a 	ret
    } else {
        pwm++;
   10230:	10800044 	addi	r2,r2,1
   10234:	d0a07705 	stb	r2,-32292(gp)
   10238:	f800283a 	ret

0001023c <led_write>:
alt_8 pwm = 0;
alt_u8 led;
int level;

void led_write(alt_u8 led_pattern) {
    IOWR(LED_BASE, 0, led_pattern);
   1023c:	008000b4 	movhi	r2,2
   10240:	21003fcc 	andi	r4,r4,255
   10244:	10843004 	addi	r2,r2,4288
   10248:	11000035 	stwio	r4,0(r2)
   1024c:	f800283a 	ret

00010250 <led_response>:
}

void led_response(char check){
    if(check == 'y'){
   10250:	21003fcc 	andi	r4,r4,255
   10254:	2100201c 	xori	r4,r4,128
   10258:	008000b4 	movhi	r2,2
   1025c:	213fe004 	addi	r4,r4,-128
   10260:	00c01e44 	movi	r3,121
   10264:	10843004 	addi	r2,r2,4288
   10268:	20c0021e 	bne	r4,r3,10274 <led_response+0x24>
        IOWR(LED_BASE, 0, 256);
   1026c:	00c04004 	movi	r3,256
   10270:	00000106 	br	10278 <led_response+0x28>
    }else{
        IOWR(LED_BASE, 0, 16);
   10274:	00c00404 	movi	r3,16
   10278:	10c00035 	stwio	r3,0(r2)
   1027c:	f800283a 	ret

00010280 <convert_read>:
}



void convert_read(alt_32 acc_read, int * level, alt_u8 * led) {
    acc_read += OFFSET;
   10280:	213ff804 	addi	r4,r4,-32
    alt_u8 val = (acc_read >> 6) & 0x07;
    * led = (8 >> val) | (8 << (8 - val));
   10284:	2005d1ba 	srai	r2,r4,6
    * level = (acc_read >> 1) & 0x1f;
   10288:	2009d07a 	srai	r4,r4,1


void convert_read(alt_32 acc_read, int * level, alt_u8 * led) {
    acc_read += OFFSET;
    alt_u8 val = (acc_read >> 6) & 0x07;
    * led = (8 >> val) | (8 << (8 - val));
   1028c:	10c001cc 	andi	r3,r2,7
   10290:	00800204 	movi	r2,8
   10294:	10cfc83a 	sub	r7,r2,r3
   10298:	11ce983a 	sll	r7,r2,r7
   1029c:	10c5d83a 	sra	r2,r2,r3
    * level = (acc_read >> 1) & 0x1f;
   102a0:	210007cc 	andi	r4,r4,31


void convert_read(alt_32 acc_read, int * level, alt_u8 * led) {
    acc_read += OFFSET;
    alt_u8 val = (acc_read >> 6) & 0x07;
    * led = (8 >> val) | (8 << (8 - val));
   102a4:	3884b03a 	or	r2,r7,r2
   102a8:	30800005 	stb	r2,0(r6)
    * level = (acc_read >> 1) & 0x1f;
   102ac:	29000015 	stw	r4,0(r5)
   102b0:	f800283a 	ret

000102b4 <is_flat>:
}

int is_flat(alt_32 reading){
   102b4:	21000f04 	addi	r4,r4,60
   102b8:	20801e70 	cmpltui	r2,r4,121
    if((reading < -60) || (reading > 60)){
        return 0;
    }else{
        return 1;
    }
}
   102bc:	f800283a 	ret

000102c0 <timer_init>:
        pwm++;
    }

}

void timer_init(void * isr) {
   102c0:	defffe04 	addi	sp,sp,-8
   102c4:	dc000015 	stw	r16,0(sp)

    IOWR_ALTERA_AVALON_TIMER_CONTROL(TIMER_BASE, 0x0003);
   102c8:	040000b4 	movhi	r16,2
        pwm++;
    }

}

void timer_init(void * isr) {
   102cc:	dfc00115 	stw	ra,4(sp)

    IOWR_ALTERA_AVALON_TIMER_CONTROL(TIMER_BASE, 0x0003);
   102d0:	84040904 	addi	r16,r16,4132
   102d4:	008000c4 	movi	r2,3
   102d8:	80800035 	stwio	r2,0(r16)
    IOWR_ALTERA_AVALON_TIMER_STATUS(TIMER_BASE, 0);
   102dc:	00c000b4 	movhi	r3,2
   102e0:	0005883a 	mov	r2,zero
   102e4:	18c40804 	addi	r3,r3,4128
   102e8:	18800035 	stwio	r2,0(r3)
    IOWR_ALTERA_AVALON_TIMER_PERIODL(TIMER_BASE, 0x0900);
   102ec:	00c000b4 	movhi	r3,2
   102f0:	18c40a04 	addi	r3,r3,4136
   102f4:	01424004 	movi	r5,2304
   102f8:	19400035 	stwio	r5,0(r3)
    IOWR_ALTERA_AVALON_TIMER_PERIODH(TIMER_BASE, 0x0000);
   102fc:	00c000b4 	movhi	r3,2
   10300:	18c40b04 	addi	r3,r3,4140
   10304:	18800035 	stwio	r2,0(r3)
    alt_irq_register(TIMER_IRQ, 0, isr);
   10308:	200d883a 	mov	r6,r4
   1030c:	000b883a 	mov	r5,zero
   10310:	01000044 	movi	r4,1
   10314:	0011c080 	call	11c08 <alt_irq_register>
    IOWR_ALTERA_AVALON_TIMER_CONTROL(TIMER_BASE, 0x0007);
   10318:	008001c4 	movi	r2,7
   1031c:	80800035 	stwio	r2,0(r16)

}
   10320:	dfc00117 	ldw	ra,4(sp)
   10324:	dc000017 	ldw	r16,0(sp)
   10328:	dec00204 	addi	sp,sp,8
   1032c:	f800283a 	ret

00010330 <FIR>:

  // filter output
  alt_32 yn = 0;

  // implementation of delay line
  xv[29] = xv[28];
   10330:	00800074 	movhi	r2,1
   10334:	108a1f04 	addi	r2,r2,10364
   10338:	10c01c17 	ldw	r3,112(r2)
    IOWR_ALTERA_AVALON_TIMER_CONTROL(TIMER_BASE, 0x0007);

}

alt_32 FIR(alt_32 xn)
{
   1033c:	defff904 	addi	sp,sp,-28
   10340:	dd400515 	stw	r21,20(sp)
   10344:	dcc00315 	stw	r19,12(sp)
   10348:	dc800215 	stw	r18,8(sp)
   1034c:	dc400115 	stw	r17,4(sp)
   10350:	dc000015 	stw	r16,0(sp)
   10354:	dfc00615 	stw	ra,24(sp)
   10358:	dd000415 	stw	r20,16(sp)

  // filter output
  alt_32 yn = 0;

  // implementation of delay line
  xv[29] = xv[28];
   1035c:	10c01d15 	stw	r3,116(r2)
  xv[28] = xv[27];
   10360:	10c01b17 	ldw	r3,108(r2)

  // convolve delay line by
  // filter coefficients
  for(int i=0;i<30;i++)
  {
    yn += h[i]*xv[i];
   10364:	05400074 	movhi	r21,1
  xv[5] = xv[4];
  xv[4] = xv[3];
  xv[3] = xv[2];
  xv[2] = xv[1];
  xv[1] = xv[0];
  xv[0] = xn;
   10368:	0023883a 	mov	r17,zero
  // filter output
  alt_32 yn = 0;

  // implementation of delay line
  xv[29] = xv[28];
  xv[28] = xv[27];
   1036c:	10c01c15 	stw	r3,112(r2)
  xv[27] = xv[26];
   10370:	10c01a17 	ldw	r3,104(r2)

  // delay line of time samples
  static alt_32 xv[30] = {0,0,0,0,0,0,0,0,0,0,0,0,0,0,0,0,0,0,0,0,0,0,0,0,0,0,0,0,0,0};

  // filter output
  alt_32 yn = 0;
   10374:	0025883a 	mov	r18,zero
   10378:	1021883a 	mov	r16,r2

  // implementation of delay line
  xv[29] = xv[28];
  xv[28] = xv[27];
  xv[27] = xv[26];
   1037c:	10c01b15 	stw	r3,108(r2)
  xv[26] = xv[25];
   10380:	10c01917 	ldw	r3,100(r2)

  // convolve delay line by
  // filter coefficients
  for(int i=0;i<30;i++)
  {
    yn += h[i]*xv[i];
   10384:	ad48e304 	addi	r21,r21,9100
  xv[1] = xv[0];
  xv[0] = xn;

  // convolve delay line by
  // filter coefficients
  for(int i=0;i<30;i++)
   10388:	04c01e04 	movi	r19,120

  // implementation of delay line
  xv[29] = xv[28];
  xv[28] = xv[27];
  xv[27] = xv[26];
  xv[26] = xv[25];
   1038c:	10c01a15 	stw	r3,104(r2)
  xv[25] = xv[24];
   10390:	10c01817 	ldw	r3,96(r2)
   10394:	10c01915 	stw	r3,100(r2)
  xv[24] = xv[23];
   10398:	10c01717 	ldw	r3,92(r2)
   1039c:	10c01815 	stw	r3,96(r2)
  xv[23] = xv[22];
   103a0:	10c01617 	ldw	r3,88(r2)
   103a4:	10c01715 	stw	r3,92(r2)
  xv[22] = xv[21];
   103a8:	10c01517 	ldw	r3,84(r2)
   103ac:	10c01615 	stw	r3,88(r2)
  xv[21] = xv[20];
   103b0:	10c01417 	ldw	r3,80(r2)
   103b4:	10c01515 	stw	r3,84(r2)
  xv[20] = xv[19];
   103b8:	10c01317 	ldw	r3,76(r2)
   103bc:	10c01415 	stw	r3,80(r2)
  xv[19] = xv[18];
   103c0:	10c01217 	ldw	r3,72(r2)
   103c4:	10c01315 	stw	r3,76(r2)
  xv[18] = xv[17];
   103c8:	10c01117 	ldw	r3,68(r2)
   103cc:	10c01215 	stw	r3,72(r2)
  xv[17] = xv[16];
   103d0:	10c01017 	ldw	r3,64(r2)
   103d4:	10c01115 	stw	r3,68(r2)
  xv[16] = xv[15];
   103d8:	10c00f17 	ldw	r3,60(r2)
   103dc:	10c01015 	stw	r3,64(r2)
  xv[15] = xv[14];
   103e0:	10c00e17 	ldw	r3,56(r2)
   103e4:	10c00f15 	stw	r3,60(r2)
  xv[14] = xv[13];
   103e8:	10c00d17 	ldw	r3,52(r2)
   103ec:	10c00e15 	stw	r3,56(r2)
  xv[13] = xv[12];
   103f0:	10c00c17 	ldw	r3,48(r2)
   103f4:	10c00d15 	stw	r3,52(r2)
  xv[12] = xv[11];
   103f8:	10c00b17 	ldw	r3,44(r2)
   103fc:	10c00c15 	stw	r3,48(r2)
  xv[11] = xv[10];
   10400:	10c00a17 	ldw	r3,40(r2)
   10404:	10c00b15 	stw	r3,44(r2)
  xv[10] = xv[9];
   10408:	10c00917 	ldw	r3,36(r2)
   1040c:	10c00a15 	stw	r3,40(r2)
  xv[9] = xv[8];
   10410:	10c00817 	ldw	r3,32(r2)
   10414:	10c00915 	stw	r3,36(r2)
  xv[8] = xv[7];
   10418:	10c00717 	ldw	r3,28(r2)
   1041c:	10c00815 	stw	r3,32(r2)
  xv[7] = xv[6];
   10420:	10c00617 	ldw	r3,24(r2)
   10424:	10c00715 	stw	r3,28(r2)
  xv[6] = xv[5];
   10428:	10c00517 	ldw	r3,20(r2)
   1042c:	10c00615 	stw	r3,24(r2)
  xv[5] = xv[4];
   10430:	10c00417 	ldw	r3,16(r2)
   10434:	10c00515 	stw	r3,20(r2)
  xv[4] = xv[3];
   10438:	10c00317 	ldw	r3,12(r2)
   1043c:	10c00415 	stw	r3,16(r2)
  xv[3] = xv[2];
   10440:	10c00217 	ldw	r3,8(r2)
   10444:	10c00315 	stw	r3,12(r2)
  xv[2] = xv[1];
   10448:	10c00117 	ldw	r3,4(r2)
   1044c:	10c00215 	stw	r3,8(r2)
  xv[1] = xv[0];
   10450:	10c00017 	ldw	r3,0(r2)
   10454:	10c00115 	stw	r3,4(r2)
  xv[0] = xn;
   10458:	11000015 	stw	r4,0(r2)

  // convolve delay line by
  // filter coefficients
  for(int i=0;i<30;i++)
  {
    yn += h[i]*xv[i];
   1045c:	8c05883a 	add	r2,r17,r16
   10460:	11000017 	ldw	r4,0(r2)
   10464:	001104c0 	call	1104c <__floatsisf>
   10468:	8d47883a 	add	r3,r17,r21
   1046c:	19400017 	ldw	r5,0(r3)
   10470:	1009883a 	mov	r4,r2
   10474:	8c400104 	addi	r17,r17,4
   10478:	0010bac0 	call	10bac <__mulsf3>
   1047c:	9009883a 	mov	r4,r18
   10480:	1029883a 	mov	r20,r2
   10484:	001104c0 	call	1104c <__floatsisf>
   10488:	100b883a 	mov	r5,r2
   1048c:	a009883a 	mov	r4,r20
   10490:	00106e40 	call	106e4 <__addsf3>
   10494:	1009883a 	mov	r4,r2
   10498:	0010fdc0 	call	10fdc <__fixsfsi>
   1049c:	1025883a 	mov	r18,r2
  xv[1] = xv[0];
  xv[0] = xn;

  // convolve delay line by
  // filter coefficients
  for(int i=0;i<30;i++)
   104a0:	8cffee1e 	bne	r17,r19,1045c <__alt_data_end+0xffff045c>
    yn += h[i]*xv[i];
  }
  // apply gain
  yn = hg*yn;
  return yn;
}
   104a4:	dfc00617 	ldw	ra,24(sp)
   104a8:	dd400517 	ldw	r21,20(sp)
   104ac:	dd000417 	ldw	r20,16(sp)
   104b0:	dcc00317 	ldw	r19,12(sp)
   104b4:	dc800217 	ldw	r18,8(sp)
   104b8:	dc400117 	ldw	r17,4(sp)
   104bc:	dc000017 	ldw	r16,0(sp)
   104c0:	dec00704 	addi	sp,sp,28
   104c4:	f800283a 	ret

000104c8 <main>:

	///%Accelerometer initialisations%///

    alt_32 x_read;
    alt_up_accelerometer_spi_dev * acc_dev;
    acc_dev = alt_up_accelerometer_spi_open_dev("/dev/accelerometer_spi");
   104c8:	01000074 	movhi	r4,1
  // apply gain
  yn = hg*yn;
  return yn;
}

int main() {
   104cc:	deffe004 	addi	sp,sp,-128

	///%Accelerometer initialisations%///

    alt_32 x_read;
    alt_up_accelerometer_spi_dev * acc_dev;
    acc_dev = alt_up_accelerometer_spi_open_dev("/dev/accelerometer_spi");
   104d0:	2108d004 	addi	r4,r4,9024
  // apply gain
  yn = hg*yn;
  return yn;
}

int main() {
   104d4:	dfc01f15 	stw	ra,124(sp)
   104d8:	dd001e15 	stw	r20,120(sp)
   104dc:	dcc01d15 	stw	r19,116(sp)
   104e0:	dc801c15 	stw	r18,112(sp)
   104e4:	dc401b15 	stw	r17,108(sp)
   104e8:	dc001a15 	stw	r16,104(sp)

	///%Accelerometer initialisations%///

    alt_32 x_read;
    alt_up_accelerometer_spi_dev * acc_dev;
    acc_dev = alt_up_accelerometer_spi_open_dev("/dev/accelerometer_spi");
   104ec:	0011ed00 	call	11ed0 <alt_up_accelerometer_spi_open_dev>
    if (acc_dev == NULL) { // if return 1, check if the spi ip name is "accelerometer_spi"
   104f0:	10007326 	beq	r2,zero,106c0 <main+0x1f8>
        return 1;
    }

    ///%switches and buttons initialisation%///
    timer_init(sys_timer_isr);
   104f4:	01000074 	movhi	r4,1
   104f8:	21006f04 	addi	r4,r4,444
   104fc:	1021883a 	mov	r16,r2
   10500:	00102c00 	call	102c0 <timer_init>
    int button_datain;
    int switch_datain;
    char response[100] = "";
   10504:	01801804 	movi	r6,96
   10508:	000b883a 	mov	r5,zero
   1050c:	d9000104 	addi	r4,sp,4

    ///Code///
    while (1) {

    	///Switches code///
     	switch_datain = IORD_ALTERA_AVALON_PIO_DATA(SWITCH_BASE);
   10510:	044000b4 	movhi	r17,2
        ////////////////////////



        //////send button///////
        button_datain = ~IORD_ALTERA_AVALON_PIO_DATA(BUTTON_BASE);
   10514:	048000b4 	movhi	r18,2
		if(button_datain &= 0b0000000001){
			int i = 0;
			while (response[i] != '\0') {
				IOWR_ALTERA_AVALON_UART_TXDATA(UART_0_BASE, response[i]);
   10518:	04c000b4 	movhi	r19,2

    ///%switches and buttons initialisation%///
    timer_init(sys_timer_isr);
    int button_datain;
    int switch_datain;
    char response[100] = "";
   1051c:	d8000015 	stw	zero,0(sp)

    ///Code///
    while (1) {

    	///Switches code///
     	switch_datain = IORD_ALTERA_AVALON_PIO_DATA(SWITCH_BASE);
   10520:	8c442804 	addi	r17,r17,4256

    ///%switches and buttons initialisation%///
    timer_init(sys_timer_isr);
    int button_datain;
    int switch_datain;
    char response[100] = "";
   10524:	00111fc0 	call	111fc <memset>
        ////////////////////////



        //////send button///////
        button_datain = ~IORD_ALTERA_AVALON_PIO_DATA(BUTTON_BASE);
   10528:	94842c04 	addi	r18,r18,4272
		if(button_datain &= 0b0000000001){
			int i = 0;
			while (response[i] != '\0') {
				IOWR_ALTERA_AVALON_UART_TXDATA(UART_0_BASE, response[i]);
   1052c:	9cc40104 	addi	r19,r19,4100

    ///Code///
    while (1) {

    	///Switches code///
     	switch_datain = IORD_ALTERA_AVALON_PIO_DATA(SWITCH_BASE);
   10530:	88800037 	ldwio	r2,0(r17)
   10534:	010000b4 	movhi	r4,2
    	switch_datain &= (0b1111111111);
   10538:	1080ffcc 	andi	r2,r2,1023
   1053c:	21042804 	addi	r4,r4,4256

    	if(switch_datain != 0){
   10540:	10001326 	beq	r2,zero,10590 <main+0xc8>
			flicked_switch = switch_datain;
			while(switch_datain != 0){
				//printf("here \n");
				switch_datain = IORD_ALTERA_AVALON_PIO_DATA(SWITCH_BASE);
   10544:	20c00037 	ldwio	r3,0(r4)
     	switch_datain = IORD_ALTERA_AVALON_PIO_DATA(SWITCH_BASE);
    	switch_datain &= (0b1111111111);

    	if(switch_datain != 0){
			flicked_switch = switch_datain;
			while(switch_datain != 0){
   10548:	18c0ffcc 	andi	r3,r3,1023
   1054c:	183ffd1e 	bne	r3,zero,10544 <__alt_data_end+0xffff0544>
				//printf("here \n");
				switch_datain = IORD_ALTERA_AVALON_PIO_DATA(SWITCH_BASE);
				switch_datain &= (0b1111111111);
			}

			if(flicked_switch == 1){
   10550:	00c00044 	movi	r3,1
   10554:	10c0031e 	bne	r2,r3,10564 <main+0x9c>
				strcat(response,"1");
   10558:	01400074 	movhi	r5,1
   1055c:	2948d604 	addi	r5,r5,9048
   10560:	00000906 	br	10588 <main+0xc0>
			}
			else if(flicked_switch == 2){
   10564:	00c00084 	movi	r3,2
   10568:	10c0031e 	bne	r2,r3,10578 <main+0xb0>
				strcat(response,"2");
   1056c:	01400074 	movhi	r5,1
   10570:	2948d704 	addi	r5,r5,9052
   10574:	00000406 	br	10588 <main+0xc0>
			}
			else if(flicked_switch == 4){
   10578:	00c00104 	movi	r3,4
   1057c:	10c0041e 	bne	r2,r3,10590 <main+0xc8>
				strcat(response,"3");
   10580:	01400074 	movhi	r5,1
   10584:	2948d804 	addi	r5,r5,9056
   10588:	d809883a 	mov	r4,sp
   1058c:	00113380 	call	11338 <strcat>
		}

    	//Accelerometer code//////

    	clock_t exec_t1, exec_t2;
    	exec_t1 = times(NULL);
   10590:	0009883a 	mov	r4,zero
   10594:	0011da80 	call	11da8 <times>
        alt_up_accelerometer_spi_read_x_axis(acc_dev, & x_read);
   10598:	d9401904 	addi	r5,sp,100
   1059c:	8009883a 	mov	r4,r16
   105a0:	0011f280 	call	11f28 <alt_up_accelerometer_spi_read_x_axis>
        //printf("RAW: %d\t", x_read);
        alt_32 FIR_out;
        FIR_out = FIR(x_read);
   105a4:	d9001917 	ldw	r4,100(sp)
   105a8:	00103300 	call	10330 <FIR>
        if(FIR_out < RIGHTLIM){
   105ac:	00ffda84 	movi	r3,-150
   105b0:	10c0060e 	bge	r2,r3,105cc <main+0x104>
    * led = (8 >> val) | (8 << (8 - val));
    * level = (acc_read >> 1) & 0x1f;
}

int is_flat(alt_32 reading){
    if((reading < -60) || (reading > 60)){
   105b4:	05001e04 	movi	r20,120
   105b8:	10800f04 	addi	r2,r2,60
   105bc:	a0803436 	bltu	r20,r2,10690 <main+0x1c8>
        if(FIR_out < RIGHTLIM){
            while(is_flat(FIR_out) == 0){
            	alt_up_accelerometer_spi_read_x_axis(acc_dev, & x_read);
            	FIR_out = FIR(x_read);
            }
            strcat(response, "R");
   105c0:	01400074 	movhi	r5,1
   105c4:	2948e104 	addi	r5,r5,9092
   105c8:	00000706 	br	105e8 <main+0x120>
            //printf(response);

        }else if(FIR_out > LEFTLIM){
   105cc:	00c02584 	movi	r3,150
   105d0:	1880070e 	bge	r3,r2,105f0 <main+0x128>
    * led = (8 >> val) | (8 << (8 - val));
    * level = (acc_read >> 1) & 0x1f;
}

int is_flat(alt_32 reading){
    if((reading < -60) || (reading > 60)){
   105d4:	05001e04 	movi	r20,120
   105d8:	10800f04 	addi	r2,r2,60
   105dc:	a0803236 	bltu	r20,r2,106a8 <main+0x1e0>
        }else if(FIR_out > LEFTLIM){
            while(is_flat(FIR_out) == 0){
            	alt_up_accelerometer_spi_read_x_axis(acc_dev, & x_read);
            	FIR_out = FIR(x_read);
            }
            strcat(response, "L");
   105e0:	01400074 	movhi	r5,1
   105e4:	2948e204 	addi	r5,r5,9096
   105e8:	d809883a 	mov	r4,sp
   105ec:	00113380 	call	11338 <strcat>
        ////////////////////////



        //////send button///////
        button_datain = ~IORD_ALTERA_AVALON_PIO_DATA(BUTTON_BASE);
   105f0:	90800037 	ldwio	r2,0(r18)
   105f4:	0084303a 	nor	r2,zero,r2
		if(button_datain &= 0b0000000001){
   105f8:	1080004c 	andi	r2,r2,1
   105fc:	10000d26 	beq	r2,zero,10634 <main+0x16c>
   10600:	0029883a 	mov	r20,zero
			int i = 0;
			while (response[i] != '\0') {
   10604:	dd05883a 	add	r2,sp,r20
   10608:	10800007 	ldb	r2,0(r2)
   1060c:	10000526 	beq	r2,zero,10624 <main+0x15c>
				IOWR_ALTERA_AVALON_UART_TXDATA(UART_0_BASE, response[i]);
   10610:	98800035 	stwio	r2,0(r19)
				i++;
				usleep(30000) ;
   10614:	011d4c04 	movi	r4,30000
        button_datain = ~IORD_ALTERA_AVALON_PIO_DATA(BUTTON_BASE);
		if(button_datain &= 0b0000000001){
			int i = 0;
			while (response[i] != '\0') {
				IOWR_ALTERA_AVALON_UART_TXDATA(UART_0_BASE, response[i]);
				i++;
   10618:	a5000044 	addi	r20,r20,1
				usleep(30000) ;
   1061c:	0011e080 	call	11e08 <usleep>
   10620:	003ff806 	br	10604 <__alt_data_end+0xffff0604>
			}
			printf("\nSending: %s\n", response);
   10624:	01000074 	movhi	r4,1
   10628:	d80b883a 	mov	r5,sp
   1062c:	2108d904 	addi	r4,r4,9060
   10630:	00112580 	call	11258 <printf>
		}
		//receive button
		button_datain = ~IORD_ALTERA_AVALON_PIO_DATA(BUTTON_BASE);
   10634:	008000b4 	movhi	r2,2
   10638:	10842c04 	addi	r2,r2,4272
   1063c:	10800037 	ldwio	r2,0(r2)
   10640:	0084303a 	nor	r2,zero,r2
		if(button_datain &= 0b0000000010){
   10644:	1080008c 	andi	r2,r2,2
   10648:	10000a26 	beq	r2,zero,10674 <main+0x1ac>
			//reset response
			memset(response,0,strlen(response));
   1064c:	d809883a 	mov	r4,sp
   10650:	00113740 	call	11374 <strlen>
   10654:	d809883a 	mov	r4,sp
   10658:	100d883a 	mov	r6,r2
   1065c:	000b883a 	mov	r5,zero
   10660:	00111fc0 	call	111fc <memset>
			printf("Resetting...\n");
   10664:	01000074 	movhi	r4,1
   10668:	2108dd04 	addi	r4,r4,9076
   1066c:	00113240 	call	11324 <puts>
   10670:	00000206 	br	1067c <main+0x1b4>
		}
		else {
			usleep(50000);
   10674:	0130d414 	movui	r4,50000
   10678:	0011e080 	call	11e08 <usleep>
		}

        //printf("<-> %c <->", response[100]);
        //exec_t2 = times(NULL); // get system time after finishing the process
        //printf("\tTime = %d ticks \n", (int)(exec_t2-exec_t1));
        convert_read(x_read, & level, & led);
   1067c:	d9001917 	ldw	r4,100(sp)
   10680:	d1a07804 	addi	r6,gp,-32288
   10684:	d1607904 	addi	r5,gp,-32284
   10688:	00102800 	call	10280 <convert_read>



    }
   1068c:	003fa806 	br	10530 <__alt_data_end+0xffff0530>
        //printf("RAW: %d\t", x_read);
        alt_32 FIR_out;
        FIR_out = FIR(x_read);
        if(FIR_out < RIGHTLIM){
            while(is_flat(FIR_out) == 0){
            	alt_up_accelerometer_spi_read_x_axis(acc_dev, & x_read);
   10690:	8009883a 	mov	r4,r16
   10694:	d9401904 	addi	r5,sp,100
   10698:	0011f280 	call	11f28 <alt_up_accelerometer_spi_read_x_axis>
            	FIR_out = FIR(x_read);
   1069c:	d9001917 	ldw	r4,100(sp)
   106a0:	00103300 	call	10330 <FIR>
   106a4:	003fc406 	br	105b8 <__alt_data_end+0xffff05b8>
            strcat(response, "R");
            //printf(response);

        }else if(FIR_out > LEFTLIM){
            while(is_flat(FIR_out) == 0){
            	alt_up_accelerometer_spi_read_x_axis(acc_dev, & x_read);
   106a8:	8009883a 	mov	r4,r16
   106ac:	d9401904 	addi	r5,sp,100
   106b0:	0011f280 	call	11f28 <alt_up_accelerometer_spi_read_x_axis>
            	FIR_out = FIR(x_read);
   106b4:	d9001917 	ldw	r4,100(sp)
   106b8:	00103300 	call	10330 <FIR>
   106bc:	003fc606 	br	105d8 <__alt_data_end+0xffff05d8>


    }

    return 0;
}
   106c0:	00800044 	movi	r2,1
   106c4:	dfc01f17 	ldw	ra,124(sp)
   106c8:	dd001e17 	ldw	r20,120(sp)
   106cc:	dcc01d17 	ldw	r19,116(sp)
   106d0:	dc801c17 	ldw	r18,112(sp)
   106d4:	dc401b17 	ldw	r17,108(sp)
   106d8:	dc001a17 	ldw	r16,104(sp)
   106dc:	dec02004 	addi	sp,sp,128
   106e0:	f800283a 	ret

000106e4 <__addsf3>:
   106e4:	defffc04 	addi	sp,sp,-16
   106e8:	2004d7fa 	srli	r2,r4,31
   106ec:	280cd5fa 	srli	r6,r5,23
   106f0:	dc000015 	stw	r16,0(sp)
   106f4:	00c02034 	movhi	r3,128
   106f8:	2020d5fa 	srli	r16,r4,23
   106fc:	280ed7fa 	srli	r7,r5,31
   10700:	18ffffc4 	addi	r3,r3,-1
   10704:	dc400115 	stw	r17,4(sp)
   10708:	1908703a 	and	r4,r3,r4
   1070c:	194a703a 	and	r5,r3,r5
   10710:	dfc00315 	stw	ra,12(sp)
   10714:	dc800215 	stw	r18,8(sp)
   10718:	14403fcc 	andi	r17,r2,255
   1071c:	84003fcc 	andi	r16,r16,255
   10720:	200890fa 	slli	r4,r4,3
   10724:	31803fcc 	andi	r6,r6,255
   10728:	280a90fa 	slli	r5,r5,3
   1072c:	89c05026 	beq	r17,r7,10870 <__addsf3+0x18c>
   10730:	8185c83a 	sub	r2,r16,r6
   10734:	00807a0e 	bge	zero,r2,10920 <__addsf3+0x23c>
   10738:	30001e1e 	bne	r6,zero,107b4 <__addsf3+0xd0>
   1073c:	28006d1e 	bne	r5,zero,108f4 <__addsf3+0x210>
   10740:	208001cc 	andi	r2,r4,7
   10744:	10000426 	beq	r2,zero,10758 <__addsf3+0x74>
   10748:	208003cc 	andi	r2,r4,15
   1074c:	00c00104 	movi	r3,4
   10750:	10c00126 	beq	r2,r3,10758 <__addsf3+0x74>
   10754:	20c9883a 	add	r4,r4,r3
   10758:	2081002c 	andhi	r2,r4,1024
   1075c:	10003926 	beq	r2,zero,10844 <__addsf3+0x160>
   10760:	84000044 	addi	r16,r16,1
   10764:	00803fc4 	movi	r2,255
   10768:	80807826 	beq	r16,r2,1094c <__addsf3+0x268>
   1076c:	200891ba 	slli	r4,r4,6
   10770:	8805883a 	mov	r2,r17
   10774:	2008d27a 	srli	r4,r4,9
   10778:	84003fcc 	andi	r16,r16,255
   1077c:	800695fa 	slli	r3,r16,23
   10780:	10803fcc 	andi	r2,r2,255
   10784:	04002034 	movhi	r16,128
   10788:	843fffc4 	addi	r16,r16,-1
   1078c:	100497fa 	slli	r2,r2,31
   10790:	2408703a 	and	r4,r4,r16
   10794:	20e0b03a 	or	r16,r4,r3
   10798:	8084b03a 	or	r2,r16,r2
   1079c:	dfc00317 	ldw	ra,12(sp)
   107a0:	dc800217 	ldw	r18,8(sp)
   107a4:	dc400117 	ldw	r17,4(sp)
   107a8:	dc000017 	ldw	r16,0(sp)
   107ac:	dec00404 	addi	sp,sp,16
   107b0:	f800283a 	ret
   107b4:	00c03fc4 	movi	r3,255
   107b8:	80ffe126 	beq	r16,r3,10740 <__alt_data_end+0xffff0740>
   107bc:	29410034 	orhi	r5,r5,1024
   107c0:	00c006c4 	movi	r3,27
   107c4:	18807516 	blt	r3,r2,1099c <__addsf3+0x2b8>
   107c8:	00c00804 	movi	r3,32
   107cc:	1887c83a 	sub	r3,r3,r2
   107d0:	28c6983a 	sll	r3,r5,r3
   107d4:	288ad83a 	srl	r5,r5,r2
   107d8:	1804c03a 	cmpne	r2,r3,zero
   107dc:	288ab03a 	or	r5,r5,r2
   107e0:	2149c83a 	sub	r4,r4,r5
   107e4:	2081002c 	andhi	r2,r4,1024
   107e8:	10001426 	beq	r2,zero,1083c <__addsf3+0x158>
   107ec:	04810034 	movhi	r18,1024
   107f0:	94bfffc4 	addi	r18,r18,-1
   107f4:	24a4703a 	and	r18,r4,r18
   107f8:	9009883a 	mov	r4,r18
   107fc:	00111700 	call	11170 <__clzsi2>
   10800:	10bffec4 	addi	r2,r2,-5
   10804:	90a4983a 	sll	r18,r18,r2
   10808:	14005416 	blt	r2,r16,1095c <__addsf3+0x278>
   1080c:	1405c83a 	sub	r2,r2,r16
   10810:	11000044 	addi	r4,r2,1
   10814:	00800804 	movi	r2,32
   10818:	1105c83a 	sub	r2,r2,r4
   1081c:	9084983a 	sll	r2,r18,r2
   10820:	9124d83a 	srl	r18,r18,r4
   10824:	0021883a 	mov	r16,zero
   10828:	1008c03a 	cmpne	r4,r2,zero
   1082c:	9108b03a 	or	r4,r18,r4
   10830:	003fc306 	br	10740 <__alt_data_end+0xffff0740>
   10834:	1000db26 	beq	r2,zero,10ba4 <__addsf3+0x4c0>
   10838:	1009883a 	mov	r4,r2
   1083c:	208001cc 	andi	r2,r4,7
   10840:	103fc11e 	bne	r2,zero,10748 <__alt_data_end+0xffff0748>
   10844:	2006d0fa 	srli	r3,r4,3
   10848:	01003fc4 	movi	r4,255
   1084c:	8805883a 	mov	r2,r17
   10850:	8100241e 	bne	r16,r4,108e4 <__addsf3+0x200>
   10854:	18006e26 	beq	r3,zero,10a10 <__addsf3+0x32c>
   10858:	19001034 	orhi	r4,r3,64
   1085c:	00c02034 	movhi	r3,128
   10860:	18ffffc4 	addi	r3,r3,-1
   10864:	043fffc4 	movi	r16,-1
   10868:	20c8703a 	and	r4,r4,r3
   1086c:	003fc206 	br	10778 <__alt_data_end+0xffff0778>
   10870:	8187c83a 	sub	r3,r16,r6
   10874:	00c03e0e 	bge	zero,r3,10970 <__addsf3+0x28c>
   10878:	30002326 	beq	r6,zero,10908 <__addsf3+0x224>
   1087c:	01803fc4 	movi	r6,255
   10880:	81bfaf26 	beq	r16,r6,10740 <__alt_data_end+0xffff0740>
   10884:	29410034 	orhi	r5,r5,1024
   10888:	018006c4 	movi	r6,27
   1088c:	30c07416 	blt	r6,r3,10a60 <__addsf3+0x37c>
   10890:	01800804 	movi	r6,32
   10894:	30cdc83a 	sub	r6,r6,r3
   10898:	298c983a 	sll	r6,r5,r6
   1089c:	28cad83a 	srl	r5,r5,r3
   108a0:	3006c03a 	cmpne	r3,r6,zero
   108a4:	28cab03a 	or	r5,r5,r3
   108a8:	2149883a 	add	r4,r4,r5
   108ac:	20c1002c 	andhi	r3,r4,1024
   108b0:	183fe226 	beq	r3,zero,1083c <__alt_data_end+0xffff083c>
   108b4:	84000044 	addi	r16,r16,1
   108b8:	00c03fc4 	movi	r3,255
   108bc:	80c05426 	beq	r16,r3,10a10 <__addsf3+0x32c>
   108c0:	00bf0034 	movhi	r2,64512
   108c4:	10bfffc4 	addi	r2,r2,-1
   108c8:	20c0004c 	andi	r3,r4,1
   108cc:	2088703a 	and	r4,r4,r2
   108d0:	2008d07a 	srli	r4,r4,1
   108d4:	20c8b03a 	or	r4,r4,r3
   108d8:	003f9906 	br	10740 <__alt_data_end+0xffff0740>
   108dc:	0007883a 	mov	r3,zero
   108e0:	0005883a 	mov	r2,zero
   108e4:	01002034 	movhi	r4,128
   108e8:	213fffc4 	addi	r4,r4,-1
   108ec:	1908703a 	and	r4,r3,r4
   108f0:	003fa106 	br	10778 <__alt_data_end+0xffff0778>
   108f4:	10bfffc4 	addi	r2,r2,-1
   108f8:	103fb926 	beq	r2,zero,107e0 <__alt_data_end+0xffff07e0>
   108fc:	00c03fc4 	movi	r3,255
   10900:	80ffaf1e 	bne	r16,r3,107c0 <__alt_data_end+0xffff07c0>
   10904:	003f8e06 	br	10740 <__alt_data_end+0xffff0740>
   10908:	283f8d26 	beq	r5,zero,10740 <__alt_data_end+0xffff0740>
   1090c:	18ffffc4 	addi	r3,r3,-1
   10910:	183fe526 	beq	r3,zero,108a8 <__alt_data_end+0xffff08a8>
   10914:	01803fc4 	movi	r6,255
   10918:	81bfdb1e 	bne	r16,r6,10888 <__alt_data_end+0xffff0888>
   1091c:	003f8806 	br	10740 <__alt_data_end+0xffff0740>
   10920:	1000201e 	bne	r2,zero,109a4 <__addsf3+0x2c0>
   10924:	80800044 	addi	r2,r16,1
   10928:	10803fcc 	andi	r2,r2,255
   1092c:	01800044 	movi	r6,1
   10930:	3080450e 	bge	r6,r2,10a48 <__addsf3+0x364>
   10934:	2165c83a 	sub	r18,r4,r5
   10938:	90c1002c 	andhi	r3,r18,1024
   1093c:	18002b26 	beq	r3,zero,109ec <__addsf3+0x308>
   10940:	2925c83a 	sub	r18,r5,r4
   10944:	3823883a 	mov	r17,r7
   10948:	003fab06 	br	107f8 <__alt_data_end+0xffff07f8>
   1094c:	8805883a 	mov	r2,r17
   10950:	043fffc4 	movi	r16,-1
   10954:	0009883a 	mov	r4,zero
   10958:	003f8706 	br	10778 <__alt_data_end+0xffff0778>
   1095c:	013f0034 	movhi	r4,64512
   10960:	213fffc4 	addi	r4,r4,-1
   10964:	80a1c83a 	sub	r16,r16,r2
   10968:	9108703a 	and	r4,r18,r4
   1096c:	003f7406 	br	10740 <__alt_data_end+0xffff0740>
   10970:	1800411e 	bne	r3,zero,10a78 <__addsf3+0x394>
   10974:	80c00044 	addi	r3,r16,1
   10978:	19c03fcc 	andi	r7,r3,255
   1097c:	01800044 	movi	r6,1
   10980:	31c0260e 	bge	r6,r7,10a1c <__addsf3+0x338>
   10984:	01803fc4 	movi	r6,255
   10988:	19802126 	beq	r3,r6,10a10 <__addsf3+0x32c>
   1098c:	2149883a 	add	r4,r4,r5
   10990:	2008d07a 	srli	r4,r4,1
   10994:	1821883a 	mov	r16,r3
   10998:	003f6906 	br	10740 <__alt_data_end+0xffff0740>
   1099c:	01400044 	movi	r5,1
   109a0:	003f8f06 	br	107e0 <__alt_data_end+0xffff07e0>
   109a4:	8000151e 	bne	r16,zero,109fc <__addsf3+0x318>
   109a8:	20002f26 	beq	r4,zero,10a68 <__addsf3+0x384>
   109ac:	0084303a 	nor	r2,zero,r2
   109b0:	10000a26 	beq	r2,zero,109dc <__addsf3+0x2f8>
   109b4:	00c03fc4 	movi	r3,255
   109b8:	30c02b26 	beq	r6,r3,10a68 <__addsf3+0x384>
   109bc:	00c006c4 	movi	r3,27
   109c0:	18806d16 	blt	r3,r2,10b78 <__addsf3+0x494>
   109c4:	00c00804 	movi	r3,32
   109c8:	1887c83a 	sub	r3,r3,r2
   109cc:	20c6983a 	sll	r3,r4,r3
   109d0:	2084d83a 	srl	r2,r4,r2
   109d4:	1808c03a 	cmpne	r4,r3,zero
   109d8:	1108b03a 	or	r4,r2,r4
   109dc:	2909c83a 	sub	r4,r5,r4
   109e0:	3021883a 	mov	r16,r6
   109e4:	3823883a 	mov	r17,r7
   109e8:	003f7e06 	br	107e4 <__alt_data_end+0xffff07e4>
   109ec:	903f821e 	bne	r18,zero,107f8 <__alt_data_end+0xffff07f8>
   109f0:	0005883a 	mov	r2,zero
   109f4:	0021883a 	mov	r16,zero
   109f8:	003fba06 	br	108e4 <__alt_data_end+0xffff08e4>
   109fc:	00c03fc4 	movi	r3,255
   10a00:	30c01926 	beq	r6,r3,10a68 <__addsf3+0x384>
   10a04:	0085c83a 	sub	r2,zero,r2
   10a08:	21010034 	orhi	r4,r4,1024
   10a0c:	003feb06 	br	109bc <__alt_data_end+0xffff09bc>
   10a10:	043fffc4 	movi	r16,-1
   10a14:	0009883a 	mov	r4,zero
   10a18:	003f5706 	br	10778 <__alt_data_end+0xffff0778>
   10a1c:	80004a1e 	bne	r16,zero,10b48 <__addsf3+0x464>
   10a20:	20005926 	beq	r4,zero,10b88 <__addsf3+0x4a4>
   10a24:	283f4626 	beq	r5,zero,10740 <__alt_data_end+0xffff0740>
   10a28:	2149883a 	add	r4,r4,r5
   10a2c:	2081002c 	andhi	r2,r4,1024
   10a30:	103f8226 	beq	r2,zero,1083c <__alt_data_end+0xffff083c>
   10a34:	00bf0034 	movhi	r2,64512
   10a38:	10bfffc4 	addi	r2,r2,-1
   10a3c:	3021883a 	mov	r16,r6
   10a40:	2088703a 	and	r4,r4,r2
   10a44:	003f3e06 	br	10740 <__alt_data_end+0xffff0740>
   10a48:	8000121e 	bne	r16,zero,10a94 <__addsf3+0x3b0>
   10a4c:	2000261e 	bne	r4,zero,10ae8 <__addsf3+0x404>
   10a50:	283fa226 	beq	r5,zero,108dc <__alt_data_end+0xffff08dc>
   10a54:	2809883a 	mov	r4,r5
   10a58:	3823883a 	mov	r17,r7
   10a5c:	003f3806 	br	10740 <__alt_data_end+0xffff0740>
   10a60:	01400044 	movi	r5,1
   10a64:	003f9006 	br	108a8 <__alt_data_end+0xffff08a8>
   10a68:	2809883a 	mov	r4,r5
   10a6c:	3021883a 	mov	r16,r6
   10a70:	3823883a 	mov	r17,r7
   10a74:	003f3206 	br	10740 <__alt_data_end+0xffff0740>
   10a78:	80000c1e 	bne	r16,zero,10aac <__addsf3+0x3c8>
   10a7c:	20002f26 	beq	r4,zero,10b3c <__addsf3+0x458>
   10a80:	00c6303a 	nor	r3,zero,r3
   10a84:	18002b1e 	bne	r3,zero,10b34 <__addsf3+0x450>
   10a88:	2149883a 	add	r4,r4,r5
   10a8c:	3021883a 	mov	r16,r6
   10a90:	003f8606 	br	108ac <__alt_data_end+0xffff08ac>
   10a94:	20001b1e 	bne	r4,zero,10b04 <__addsf3+0x420>
   10a98:	28003926 	beq	r5,zero,10b80 <__addsf3+0x49c>
   10a9c:	2809883a 	mov	r4,r5
   10aa0:	3823883a 	mov	r17,r7
   10aa4:	04003fc4 	movi	r16,255
   10aa8:	003f2506 	br	10740 <__alt_data_end+0xffff0740>
   10aac:	01c03fc4 	movi	r7,255
   10ab0:	31c02226 	beq	r6,r7,10b3c <__addsf3+0x458>
   10ab4:	00c7c83a 	sub	r3,zero,r3
   10ab8:	21010034 	orhi	r4,r4,1024
   10abc:	01c006c4 	movi	r7,27
   10ac0:	38c03616 	blt	r7,r3,10b9c <__addsf3+0x4b8>
   10ac4:	01c00804 	movi	r7,32
   10ac8:	38cfc83a 	sub	r7,r7,r3
   10acc:	21ce983a 	sll	r7,r4,r7
   10ad0:	20c6d83a 	srl	r3,r4,r3
   10ad4:	3808c03a 	cmpne	r4,r7,zero
   10ad8:	1906b03a 	or	r3,r3,r4
   10adc:	1949883a 	add	r4,r3,r5
   10ae0:	3021883a 	mov	r16,r6
   10ae4:	003f7106 	br	108ac <__alt_data_end+0xffff08ac>
   10ae8:	283f1526 	beq	r5,zero,10740 <__alt_data_end+0xffff0740>
   10aec:	2145c83a 	sub	r2,r4,r5
   10af0:	10c1002c 	andhi	r3,r2,1024
   10af4:	183f4f26 	beq	r3,zero,10834 <__alt_data_end+0xffff0834>
   10af8:	2909c83a 	sub	r4,r5,r4
   10afc:	3823883a 	mov	r17,r7
   10b00:	003f0f06 	br	10740 <__alt_data_end+0xffff0740>
   10b04:	28001a26 	beq	r5,zero,10b70 <__addsf3+0x48c>
   10b08:	2008d0fa 	srli	r4,r4,3
   10b0c:	2080102c 	andhi	r2,r4,64
   10b10:	10000526 	beq	r2,zero,10b28 <__addsf3+0x444>
   10b14:	280ad0fa 	srli	r5,r5,3
   10b18:	2880102c 	andhi	r2,r5,64
   10b1c:	1000021e 	bne	r2,zero,10b28 <__addsf3+0x444>
   10b20:	2809883a 	mov	r4,r5
   10b24:	3823883a 	mov	r17,r7
   10b28:	200890fa 	slli	r4,r4,3
   10b2c:	04003fc4 	movi	r16,255
   10b30:	003f0306 	br	10740 <__alt_data_end+0xffff0740>
   10b34:	01c03fc4 	movi	r7,255
   10b38:	31ffe01e 	bne	r6,r7,10abc <__alt_data_end+0xffff0abc>
   10b3c:	2809883a 	mov	r4,r5
   10b40:	3021883a 	mov	r16,r6
   10b44:	003efe06 	br	10740 <__alt_data_end+0xffff0740>
   10b48:	20001126 	beq	r4,zero,10b90 <__addsf3+0x4ac>
   10b4c:	28000826 	beq	r5,zero,10b70 <__addsf3+0x48c>
   10b50:	2008d0fa 	srli	r4,r4,3
   10b54:	2080102c 	andhi	r2,r4,64
   10b58:	103ff326 	beq	r2,zero,10b28 <__alt_data_end+0xffff0b28>
   10b5c:	280ad0fa 	srli	r5,r5,3
   10b60:	2880102c 	andhi	r2,r5,64
   10b64:	103ff01e 	bne	r2,zero,10b28 <__alt_data_end+0xffff0b28>
   10b68:	2809883a 	mov	r4,r5
   10b6c:	003fee06 	br	10b28 <__alt_data_end+0xffff0b28>
   10b70:	04003fc4 	movi	r16,255
   10b74:	003ef206 	br	10740 <__alt_data_end+0xffff0740>
   10b78:	01000044 	movi	r4,1
   10b7c:	003f9706 	br	109dc <__alt_data_end+0xffff09dc>
   10b80:	0005883a 	mov	r2,zero
   10b84:	003f3406 	br	10858 <__alt_data_end+0xffff0858>
   10b88:	2809883a 	mov	r4,r5
   10b8c:	003eec06 	br	10740 <__alt_data_end+0xffff0740>
   10b90:	2809883a 	mov	r4,r5
   10b94:	04003fc4 	movi	r16,255
   10b98:	003ee906 	br	10740 <__alt_data_end+0xffff0740>
   10b9c:	00c00044 	movi	r3,1
   10ba0:	003fce06 	br	10adc <__alt_data_end+0xffff0adc>
   10ba4:	0005883a 	mov	r2,zero
   10ba8:	003f4e06 	br	108e4 <__alt_data_end+0xffff08e4>

00010bac <__mulsf3>:
   10bac:	defff504 	addi	sp,sp,-44
   10bb0:	dc000115 	stw	r16,4(sp)
   10bb4:	2020d5fa 	srli	r16,r4,23
   10bb8:	dd400615 	stw	r21,24(sp)
   10bbc:	202ad7fa 	srli	r21,r4,31
   10bc0:	dc800315 	stw	r18,12(sp)
   10bc4:	04802034 	movhi	r18,128
   10bc8:	df000915 	stw	fp,36(sp)
   10bcc:	dd000515 	stw	r20,20(sp)
   10bd0:	94bfffc4 	addi	r18,r18,-1
   10bd4:	dfc00a15 	stw	ra,40(sp)
   10bd8:	ddc00815 	stw	r23,32(sp)
   10bdc:	dd800715 	stw	r22,28(sp)
   10be0:	dcc00415 	stw	r19,16(sp)
   10be4:	dc400215 	stw	r17,8(sp)
   10be8:	84003fcc 	andi	r16,r16,255
   10bec:	9124703a 	and	r18,r18,r4
   10bf0:	a829883a 	mov	r20,r21
   10bf4:	af003fcc 	andi	fp,r21,255
   10bf8:	80005426 	beq	r16,zero,10d4c <__mulsf3+0x1a0>
   10bfc:	00803fc4 	movi	r2,255
   10c00:	80802f26 	beq	r16,r2,10cc0 <__mulsf3+0x114>
   10c04:	91002034 	orhi	r4,r18,128
   10c08:	202490fa 	slli	r18,r4,3
   10c0c:	843fe044 	addi	r16,r16,-127
   10c10:	0023883a 	mov	r17,zero
   10c14:	002f883a 	mov	r23,zero
   10c18:	2804d5fa 	srli	r2,r5,23
   10c1c:	282cd7fa 	srli	r22,r5,31
   10c20:	01002034 	movhi	r4,128
   10c24:	213fffc4 	addi	r4,r4,-1
   10c28:	10803fcc 	andi	r2,r2,255
   10c2c:	2166703a 	and	r19,r4,r5
   10c30:	b1803fcc 	andi	r6,r22,255
   10c34:	10004c26 	beq	r2,zero,10d68 <__mulsf3+0x1bc>
   10c38:	00c03fc4 	movi	r3,255
   10c3c:	10c04726 	beq	r2,r3,10d5c <__mulsf3+0x1b0>
   10c40:	99002034 	orhi	r4,r19,128
   10c44:	202690fa 	slli	r19,r4,3
   10c48:	10bfe044 	addi	r2,r2,-127
   10c4c:	0007883a 	mov	r3,zero
   10c50:	80a1883a 	add	r16,r16,r2
   10c54:	010003c4 	movi	r4,15
   10c58:	1c44b03a 	or	r2,r3,r17
   10c5c:	b56af03a 	xor	r21,r22,r21
   10c60:	81c00044 	addi	r7,r16,1
   10c64:	20806b36 	bltu	r4,r2,10e14 <__mulsf3+0x268>
   10c68:	100490ba 	slli	r2,r2,2
   10c6c:	01000074 	movhi	r4,1
   10c70:	21032004 	addi	r4,r4,3200
   10c74:	1105883a 	add	r2,r2,r4
   10c78:	10800017 	ldw	r2,0(r2)
   10c7c:	1000683a 	jmp	r2
   10c80:	00010e14 	movui	zero,1080
   10c84:	00010cd4 	movui	zero,1075
   10c88:	00010cd4 	movui	zero,1075
   10c8c:	00010cd0 	cmplti	zero,zero,1075
   10c90:	00010df8 	rdprs	zero,zero,1079
   10c94:	00010df8 	rdprs	zero,zero,1079
   10c98:	00010de4 	muli	zero,zero,1079
   10c9c:	00010cd0 	cmplti	zero,zero,1075
   10ca0:	00010df8 	rdprs	zero,zero,1079
   10ca4:	00010de4 	muli	zero,zero,1079
   10ca8:	00010df8 	rdprs	zero,zero,1079
   10cac:	00010cd0 	cmplti	zero,zero,1075
   10cb0:	00010e04 	movi	zero,1080
   10cb4:	00010e04 	movi	zero,1080
   10cb8:	00010e04 	movi	zero,1080
   10cbc:	00010f14 	movui	zero,1084
   10cc0:	90003b1e 	bne	r18,zero,10db0 <__mulsf3+0x204>
   10cc4:	04400204 	movi	r17,8
   10cc8:	05c00084 	movi	r23,2
   10ccc:	003fd206 	br	10c18 <__alt_data_end+0xffff0c18>
   10cd0:	302b883a 	mov	r21,r6
   10cd4:	00800084 	movi	r2,2
   10cd8:	18802626 	beq	r3,r2,10d74 <__mulsf3+0x1c8>
   10cdc:	008000c4 	movi	r2,3
   10ce0:	1880b826 	beq	r3,r2,10fc4 <__mulsf3+0x418>
   10ce4:	00800044 	movi	r2,1
   10ce8:	1880af1e 	bne	r3,r2,10fa8 <__mulsf3+0x3fc>
   10cec:	a829883a 	mov	r20,r21
   10cf0:	0007883a 	mov	r3,zero
   10cf4:	0009883a 	mov	r4,zero
   10cf8:	18803fcc 	andi	r2,r3,255
   10cfc:	100695fa 	slli	r3,r2,23
   10d00:	a0803fcc 	andi	r2,r20,255
   10d04:	100a97fa 	slli	r5,r2,31
   10d08:	00802034 	movhi	r2,128
   10d0c:	10bfffc4 	addi	r2,r2,-1
   10d10:	2084703a 	and	r2,r4,r2
   10d14:	10c4b03a 	or	r2,r2,r3
   10d18:	1144b03a 	or	r2,r2,r5
   10d1c:	dfc00a17 	ldw	ra,40(sp)
   10d20:	df000917 	ldw	fp,36(sp)
   10d24:	ddc00817 	ldw	r23,32(sp)
   10d28:	dd800717 	ldw	r22,28(sp)
   10d2c:	dd400617 	ldw	r21,24(sp)
   10d30:	dd000517 	ldw	r20,20(sp)
   10d34:	dcc00417 	ldw	r19,16(sp)
   10d38:	dc800317 	ldw	r18,12(sp)
   10d3c:	dc400217 	ldw	r17,8(sp)
   10d40:	dc000117 	ldw	r16,4(sp)
   10d44:	dec00b04 	addi	sp,sp,44
   10d48:	f800283a 	ret
   10d4c:	90000d1e 	bne	r18,zero,10d84 <__mulsf3+0x1d8>
   10d50:	04400104 	movi	r17,4
   10d54:	05c00044 	movi	r23,1
   10d58:	003faf06 	br	10c18 <__alt_data_end+0xffff0c18>
   10d5c:	9806c03a 	cmpne	r3,r19,zero
   10d60:	18c00084 	addi	r3,r3,2
   10d64:	003fba06 	br	10c50 <__alt_data_end+0xffff0c50>
   10d68:	9800141e 	bne	r19,zero,10dbc <__mulsf3+0x210>
   10d6c:	00c00044 	movi	r3,1
   10d70:	003fb706 	br	10c50 <__alt_data_end+0xffff0c50>
   10d74:	a829883a 	mov	r20,r21
   10d78:	00ffffc4 	movi	r3,-1
   10d7c:	0009883a 	mov	r4,zero
   10d80:	003fdd06 	br	10cf8 <__alt_data_end+0xffff0cf8>
   10d84:	9009883a 	mov	r4,r18
   10d88:	d9400015 	stw	r5,0(sp)
   10d8c:	00111700 	call	11170 <__clzsi2>
   10d90:	10fffec4 	addi	r3,r2,-5
   10d94:	10801d84 	addi	r2,r2,118
   10d98:	90e4983a 	sll	r18,r18,r3
   10d9c:	00a1c83a 	sub	r16,zero,r2
   10da0:	0023883a 	mov	r17,zero
   10da4:	002f883a 	mov	r23,zero
   10da8:	d9400017 	ldw	r5,0(sp)
   10dac:	003f9a06 	br	10c18 <__alt_data_end+0xffff0c18>
   10db0:	04400304 	movi	r17,12
   10db4:	05c000c4 	movi	r23,3
   10db8:	003f9706 	br	10c18 <__alt_data_end+0xffff0c18>
   10dbc:	9809883a 	mov	r4,r19
   10dc0:	d9800015 	stw	r6,0(sp)
   10dc4:	00111700 	call	11170 <__clzsi2>
   10dc8:	10fffec4 	addi	r3,r2,-5
   10dcc:	10801d84 	addi	r2,r2,118
   10dd0:	98e6983a 	sll	r19,r19,r3
   10dd4:	0085c83a 	sub	r2,zero,r2
   10dd8:	0007883a 	mov	r3,zero
   10ddc:	d9800017 	ldw	r6,0(sp)
   10de0:	003f9b06 	br	10c50 <__alt_data_end+0xffff0c50>
   10de4:	01002034 	movhi	r4,128
   10de8:	0029883a 	mov	r20,zero
   10dec:	213fffc4 	addi	r4,r4,-1
   10df0:	00ffffc4 	movi	r3,-1
   10df4:	003fc006 	br	10cf8 <__alt_data_end+0xffff0cf8>
   10df8:	9027883a 	mov	r19,r18
   10dfc:	b807883a 	mov	r3,r23
   10e00:	003fb406 	br	10cd4 <__alt_data_end+0xffff0cd4>
   10e04:	9027883a 	mov	r19,r18
   10e08:	e02b883a 	mov	r21,fp
   10e0c:	b807883a 	mov	r3,r23
   10e10:	003fb006 	br	10cd4 <__alt_data_end+0xffff0cd4>
   10e14:	9028d43a 	srli	r20,r18,16
   10e18:	982cd43a 	srli	r22,r19,16
   10e1c:	94bfffcc 	andi	r18,r18,65535
   10e20:	9cffffcc 	andi	r19,r19,65535
   10e24:	980b883a 	mov	r5,r19
   10e28:	9009883a 	mov	r4,r18
   10e2c:	d9c00015 	stw	r7,0(sp)
   10e30:	00111d40 	call	111d4 <__mulsi3>
   10e34:	a00b883a 	mov	r5,r20
   10e38:	9809883a 	mov	r4,r19
   10e3c:	1023883a 	mov	r17,r2
   10e40:	00111d40 	call	111d4 <__mulsi3>
   10e44:	a009883a 	mov	r4,r20
   10e48:	b00b883a 	mov	r5,r22
   10e4c:	1027883a 	mov	r19,r2
   10e50:	00111d40 	call	111d4 <__mulsi3>
   10e54:	b00b883a 	mov	r5,r22
   10e58:	9009883a 	mov	r4,r18
   10e5c:	1029883a 	mov	r20,r2
   10e60:	00111d40 	call	111d4 <__mulsi3>
   10e64:	8806d43a 	srli	r3,r17,16
   10e68:	14c5883a 	add	r2,r2,r19
   10e6c:	d9c00017 	ldw	r7,0(sp)
   10e70:	1885883a 	add	r2,r3,r2
   10e74:	14c0022e 	bgeu	r2,r19,10e80 <__mulsf3+0x2d4>
   10e78:	00c00074 	movhi	r3,1
   10e7c:	a0e9883a 	add	r20,r20,r3
   10e80:	1026943a 	slli	r19,r2,16
   10e84:	8c7fffcc 	andi	r17,r17,65535
   10e88:	1004d43a 	srli	r2,r2,16
   10e8c:	9c63883a 	add	r17,r19,r17
   10e90:	882691ba 	slli	r19,r17,6
   10e94:	1505883a 	add	r2,r2,r20
   10e98:	8822d6ba 	srli	r17,r17,26
   10e9c:	100891ba 	slli	r4,r2,6
   10ea0:	9826c03a 	cmpne	r19,r19,zero
   10ea4:	9c62b03a 	or	r17,r19,r17
   10ea8:	8926b03a 	or	r19,r17,r4
   10eac:	9882002c 	andhi	r2,r19,2048
   10eb0:	10000426 	beq	r2,zero,10ec4 <__mulsf3+0x318>
   10eb4:	9804d07a 	srli	r2,r19,1
   10eb8:	9900004c 	andi	r4,r19,1
   10ebc:	3821883a 	mov	r16,r7
   10ec0:	1126b03a 	or	r19,r2,r4
   10ec4:	80c01fc4 	addi	r3,r16,127
   10ec8:	00c0210e 	bge	zero,r3,10f50 <__mulsf3+0x3a4>
   10ecc:	988001cc 	andi	r2,r19,7
   10ed0:	10000426 	beq	r2,zero,10ee4 <__mulsf3+0x338>
   10ed4:	988003cc 	andi	r2,r19,15
   10ed8:	01000104 	movi	r4,4
   10edc:	11000126 	beq	r2,r4,10ee4 <__mulsf3+0x338>
   10ee0:	9927883a 	add	r19,r19,r4
   10ee4:	9882002c 	andhi	r2,r19,2048
   10ee8:	10000426 	beq	r2,zero,10efc <__mulsf3+0x350>
   10eec:	00be0034 	movhi	r2,63488
   10ef0:	10bfffc4 	addi	r2,r2,-1
   10ef4:	80c02004 	addi	r3,r16,128
   10ef8:	98a6703a 	and	r19,r19,r2
   10efc:	00803f84 	movi	r2,254
   10f00:	10ff9c16 	blt	r2,r3,10d74 <__alt_data_end+0xffff0d74>
   10f04:	980891ba 	slli	r4,r19,6
   10f08:	a829883a 	mov	r20,r21
   10f0c:	2008d27a 	srli	r4,r4,9
   10f10:	003f7906 	br	10cf8 <__alt_data_end+0xffff0cf8>
   10f14:	9080102c 	andhi	r2,r18,64
   10f18:	10000826 	beq	r2,zero,10f3c <__mulsf3+0x390>
   10f1c:	9880102c 	andhi	r2,r19,64
   10f20:	1000061e 	bne	r2,zero,10f3c <__mulsf3+0x390>
   10f24:	00802034 	movhi	r2,128
   10f28:	99001034 	orhi	r4,r19,64
   10f2c:	10bfffc4 	addi	r2,r2,-1
   10f30:	b029883a 	mov	r20,r22
   10f34:	2088703a 	and	r4,r4,r2
   10f38:	003fad06 	br	10df0 <__alt_data_end+0xffff0df0>
   10f3c:	00802034 	movhi	r2,128
   10f40:	91001034 	orhi	r4,r18,64
   10f44:	10bfffc4 	addi	r2,r2,-1
   10f48:	2088703a 	and	r4,r4,r2
   10f4c:	003fa806 	br	10df0 <__alt_data_end+0xffff0df0>
   10f50:	00800044 	movi	r2,1
   10f54:	10c7c83a 	sub	r3,r2,r3
   10f58:	008006c4 	movi	r2,27
   10f5c:	10ff6316 	blt	r2,r3,10cec <__alt_data_end+0xffff0cec>
   10f60:	00800804 	movi	r2,32
   10f64:	10c5c83a 	sub	r2,r2,r3
   10f68:	9884983a 	sll	r2,r19,r2
   10f6c:	98c6d83a 	srl	r3,r19,r3
   10f70:	1004c03a 	cmpne	r2,r2,zero
   10f74:	1884b03a 	or	r2,r3,r2
   10f78:	10c001cc 	andi	r3,r2,7
   10f7c:	18000426 	beq	r3,zero,10f90 <__mulsf3+0x3e4>
   10f80:	10c003cc 	andi	r3,r2,15
   10f84:	01000104 	movi	r4,4
   10f88:	19000126 	beq	r3,r4,10f90 <__mulsf3+0x3e4>
   10f8c:	1105883a 	add	r2,r2,r4
   10f90:	10c1002c 	andhi	r3,r2,1024
   10f94:	18000626 	beq	r3,zero,10fb0 <__mulsf3+0x404>
   10f98:	a829883a 	mov	r20,r21
   10f9c:	00c00044 	movi	r3,1
   10fa0:	0009883a 	mov	r4,zero
   10fa4:	003f5406 	br	10cf8 <__alt_data_end+0xffff0cf8>
   10fa8:	3821883a 	mov	r16,r7
   10fac:	003fc506 	br	10ec4 <__alt_data_end+0xffff0ec4>
   10fb0:	100491ba 	slli	r2,r2,6
   10fb4:	a829883a 	mov	r20,r21
   10fb8:	0007883a 	mov	r3,zero
   10fbc:	1008d27a 	srli	r4,r2,9
   10fc0:	003f4d06 	br	10cf8 <__alt_data_end+0xffff0cf8>
   10fc4:	00802034 	movhi	r2,128
   10fc8:	99001034 	orhi	r4,r19,64
   10fcc:	10bfffc4 	addi	r2,r2,-1
   10fd0:	a829883a 	mov	r20,r21
   10fd4:	2088703a 	and	r4,r4,r2
   10fd8:	003f8506 	br	10df0 <__alt_data_end+0xffff0df0>

00010fdc <__fixsfsi>:
   10fdc:	200ad5fa 	srli	r5,r4,23
   10fe0:	00c02034 	movhi	r3,128
   10fe4:	18ffffc4 	addi	r3,r3,-1
   10fe8:	29403fcc 	andi	r5,r5,255
   10fec:	00801f84 	movi	r2,126
   10ff0:	1906703a 	and	r3,r3,r4
   10ff4:	2008d7fa 	srli	r4,r4,31
   10ff8:	11400e0e 	bge	r2,r5,11034 <__fixsfsi+0x58>
   10ffc:	00802744 	movi	r2,157
   11000:	11400816 	blt	r2,r5,11024 <__fixsfsi+0x48>
   11004:	00802544 	movi	r2,149
   11008:	18c02034 	orhi	r3,r3,128
   1100c:	11400b0e 	bge	r2,r5,1103c <__fixsfsi+0x60>
   11010:	28bfda84 	addi	r2,r5,-150
   11014:	1884983a 	sll	r2,r3,r2
   11018:	20000726 	beq	r4,zero,11038 <__fixsfsi+0x5c>
   1101c:	0085c83a 	sub	r2,zero,r2
   11020:	f800283a 	ret
   11024:	00a00034 	movhi	r2,32768
   11028:	10bfffc4 	addi	r2,r2,-1
   1102c:	2085883a 	add	r2,r4,r2
   11030:	f800283a 	ret
   11034:	0005883a 	mov	r2,zero
   11038:	f800283a 	ret
   1103c:	00802584 	movi	r2,150
   11040:	1145c83a 	sub	r2,r2,r5
   11044:	1884d83a 	srl	r2,r3,r2
   11048:	003ff306 	br	11018 <__alt_data_end+0xffff1018>

0001104c <__floatsisf>:
   1104c:	defffd04 	addi	sp,sp,-12
   11050:	dfc00215 	stw	ra,8(sp)
   11054:	dc400115 	stw	r17,4(sp)
   11058:	dc000015 	stw	r16,0(sp)
   1105c:	20003526 	beq	r4,zero,11134 <__floatsisf+0xe8>
   11060:	2021883a 	mov	r16,r4
   11064:	2022d7fa 	srli	r17,r4,31
   11068:	20003616 	blt	r4,zero,11144 <__floatsisf+0xf8>
   1106c:	8009883a 	mov	r4,r16
   11070:	00111700 	call	11170 <__clzsi2>
   11074:	00c02784 	movi	r3,158
   11078:	1887c83a 	sub	r3,r3,r2
   1107c:	01002584 	movi	r4,150
   11080:	20c01416 	blt	r4,r3,110d4 <__floatsisf+0x88>
   11084:	20c9c83a 	sub	r4,r4,r3
   11088:	8120983a 	sll	r16,r16,r4
   1108c:	00802034 	movhi	r2,128
   11090:	10bfffc4 	addi	r2,r2,-1
   11094:	8809883a 	mov	r4,r17
   11098:	80a0703a 	and	r16,r16,r2
   1109c:	18803fcc 	andi	r2,r3,255
   110a0:	100695fa 	slli	r3,r2,23
   110a4:	20803fcc 	andi	r2,r4,255
   110a8:	100897fa 	slli	r4,r2,31
   110ac:	00802034 	movhi	r2,128
   110b0:	10bfffc4 	addi	r2,r2,-1
   110b4:	8084703a 	and	r2,r16,r2
   110b8:	10c4b03a 	or	r2,r2,r3
   110bc:	1104b03a 	or	r2,r2,r4
   110c0:	dfc00217 	ldw	ra,8(sp)
   110c4:	dc400117 	ldw	r17,4(sp)
   110c8:	dc000017 	ldw	r16,0(sp)
   110cc:	dec00304 	addi	sp,sp,12
   110d0:	f800283a 	ret
   110d4:	01002644 	movi	r4,153
   110d8:	20c01c16 	blt	r4,r3,1114c <__floatsisf+0x100>
   110dc:	20c9c83a 	sub	r4,r4,r3
   110e0:	8120983a 	sll	r16,r16,r4
   110e4:	013f0034 	movhi	r4,64512
   110e8:	213fffc4 	addi	r4,r4,-1
   110ec:	814001cc 	andi	r5,r16,7
   110f0:	8108703a 	and	r4,r16,r4
   110f4:	28000426 	beq	r5,zero,11108 <__floatsisf+0xbc>
   110f8:	840003cc 	andi	r16,r16,15
   110fc:	01400104 	movi	r5,4
   11100:	81400126 	beq	r16,r5,11108 <__floatsisf+0xbc>
   11104:	2149883a 	add	r4,r4,r5
   11108:	2141002c 	andhi	r5,r4,1024
   1110c:	28000526 	beq	r5,zero,11124 <__floatsisf+0xd8>
   11110:	00c027c4 	movi	r3,159
   11114:	1887c83a 	sub	r3,r3,r2
   11118:	00bf0034 	movhi	r2,64512
   1111c:	10bfffc4 	addi	r2,r2,-1
   11120:	2088703a 	and	r4,r4,r2
   11124:	202091ba 	slli	r16,r4,6
   11128:	8809883a 	mov	r4,r17
   1112c:	8020d27a 	srli	r16,r16,9
   11130:	003fda06 	br	1109c <__alt_data_end+0xffff109c>
   11134:	0009883a 	mov	r4,zero
   11138:	0007883a 	mov	r3,zero
   1113c:	0021883a 	mov	r16,zero
   11140:	003fd606 	br	1109c <__alt_data_end+0xffff109c>
   11144:	0121c83a 	sub	r16,zero,r4
   11148:	003fc806 	br	1106c <__alt_data_end+0xffff106c>
   1114c:	01002e44 	movi	r4,185
   11150:	20c9c83a 	sub	r4,r4,r3
   11154:	01400144 	movi	r5,5
   11158:	8108983a 	sll	r4,r16,r4
   1115c:	288bc83a 	sub	r5,r5,r2
   11160:	8160d83a 	srl	r16,r16,r5
   11164:	2008c03a 	cmpne	r4,r4,zero
   11168:	8120b03a 	or	r16,r16,r4
   1116c:	003fdd06 	br	110e4 <__alt_data_end+0xffff10e4>

00011170 <__clzsi2>:
   11170:	00bfffd4 	movui	r2,65535
   11174:	11000536 	bltu	r2,r4,1118c <__clzsi2+0x1c>
   11178:	00803fc4 	movi	r2,255
   1117c:	11000f36 	bltu	r2,r4,111bc <__clzsi2+0x4c>
   11180:	00800804 	movi	r2,32
   11184:	0007883a 	mov	r3,zero
   11188:	00000506 	br	111a0 <__clzsi2+0x30>
   1118c:	00804034 	movhi	r2,256
   11190:	10bfffc4 	addi	r2,r2,-1
   11194:	11000c2e 	bgeu	r2,r4,111c8 <__clzsi2+0x58>
   11198:	00800204 	movi	r2,8
   1119c:	00c00604 	movi	r3,24
   111a0:	20c8d83a 	srl	r4,r4,r3
   111a4:	00c00074 	movhi	r3,1
   111a8:	18c90104 	addi	r3,r3,9220
   111ac:	1909883a 	add	r4,r3,r4
   111b0:	20c00003 	ldbu	r3,0(r4)
   111b4:	10c5c83a 	sub	r2,r2,r3
   111b8:	f800283a 	ret
   111bc:	00800604 	movi	r2,24
   111c0:	00c00204 	movi	r3,8
   111c4:	003ff606 	br	111a0 <__alt_data_end+0xffff11a0>
   111c8:	00800404 	movi	r2,16
   111cc:	1007883a 	mov	r3,r2
   111d0:	003ff306 	br	111a0 <__alt_data_end+0xffff11a0>

000111d4 <__mulsi3>:
   111d4:	0005883a 	mov	r2,zero
   111d8:	20000726 	beq	r4,zero,111f8 <__mulsi3+0x24>
   111dc:	20c0004c 	andi	r3,r4,1
   111e0:	2008d07a 	srli	r4,r4,1
   111e4:	18000126 	beq	r3,zero,111ec <__mulsi3+0x18>
   111e8:	1145883a 	add	r2,r2,r5
   111ec:	294b883a 	add	r5,r5,r5
   111f0:	203ffa1e 	bne	r4,zero,111dc <__alt_data_end+0xffff11dc>
   111f4:	f800283a 	ret
   111f8:	f800283a 	ret

000111fc <memset>:
   111fc:	2005883a 	mov	r2,r4
   11200:	2007883a 	mov	r3,r4
   11204:	218d883a 	add	r6,r4,r6
   11208:	19800326 	beq	r3,r6,11218 <memset+0x1c>
   1120c:	19400005 	stb	r5,0(r3)
   11210:	18c00044 	addi	r3,r3,1
   11214:	003ffc06 	br	11208 <__alt_data_end+0xffff1208>
   11218:	f800283a 	ret

0001121c <_printf_r>:
   1121c:	defffd04 	addi	sp,sp,-12
   11220:	dfc00015 	stw	ra,0(sp)
   11224:	d9800115 	stw	r6,4(sp)
   11228:	d9c00215 	stw	r7,8(sp)
   1122c:	20c00217 	ldw	r3,8(r4)
   11230:	01800074 	movhi	r6,1
   11234:	31865104 	addi	r6,r6,6468
   11238:	19800115 	stw	r6,4(r3)
   1123c:	280d883a 	mov	r6,r5
   11240:	21400217 	ldw	r5,8(r4)
   11244:	d9c00104 	addi	r7,sp,4
   11248:	00113fc0 	call	113fc <___vfprintf_internal_r>
   1124c:	dfc00017 	ldw	ra,0(sp)
   11250:	dec00304 	addi	sp,sp,12
   11254:	f800283a 	ret

00011258 <printf>:
   11258:	defffc04 	addi	sp,sp,-16
   1125c:	dfc00015 	stw	ra,0(sp)
   11260:	d9400115 	stw	r5,4(sp)
   11264:	d9800215 	stw	r6,8(sp)
   11268:	d9c00315 	stw	r7,12(sp)
   1126c:	00800074 	movhi	r2,1
   11270:	1089a004 	addi	r2,r2,9856
   11274:	10800017 	ldw	r2,0(r2)
   11278:	01400074 	movhi	r5,1
   1127c:	29465104 	addi	r5,r5,6468
   11280:	10c00217 	ldw	r3,8(r2)
   11284:	d9800104 	addi	r6,sp,4
   11288:	19400115 	stw	r5,4(r3)
   1128c:	200b883a 	mov	r5,r4
   11290:	11000217 	ldw	r4,8(r2)
   11294:	00119280 	call	11928 <__vfprintf_internal>
   11298:	dfc00017 	ldw	ra,0(sp)
   1129c:	dec00404 	addi	sp,sp,16
   112a0:	f800283a 	ret

000112a4 <_puts_r>:
   112a4:	defffd04 	addi	sp,sp,-12
   112a8:	dc000015 	stw	r16,0(sp)
   112ac:	2021883a 	mov	r16,r4
   112b0:	2809883a 	mov	r4,r5
   112b4:	dfc00215 	stw	ra,8(sp)
   112b8:	dc400115 	stw	r17,4(sp)
   112bc:	2823883a 	mov	r17,r5
   112c0:	00113740 	call	11374 <strlen>
   112c4:	81400217 	ldw	r5,8(r16)
   112c8:	01000074 	movhi	r4,1
   112cc:	21065104 	addi	r4,r4,6468
   112d0:	29000115 	stw	r4,4(r5)
   112d4:	100f883a 	mov	r7,r2
   112d8:	880d883a 	mov	r6,r17
   112dc:	8009883a 	mov	r4,r16
   112e0:	00119440 	call	11944 <__sfvwrite_small_dev>
   112e4:	00ffffc4 	movi	r3,-1
   112e8:	10c00926 	beq	r2,r3,11310 <_puts_r+0x6c>
   112ec:	81400217 	ldw	r5,8(r16)
   112f0:	01800074 	movhi	r6,1
   112f4:	01c00044 	movi	r7,1
   112f8:	28800117 	ldw	r2,4(r5)
   112fc:	3188dc04 	addi	r6,r6,9072
   11300:	8009883a 	mov	r4,r16
   11304:	103ee83a 	callr	r2
   11308:	10bfffe0 	cmpeqi	r2,r2,-1
   1130c:	0085c83a 	sub	r2,zero,r2
   11310:	dfc00217 	ldw	ra,8(sp)
   11314:	dc400117 	ldw	r17,4(sp)
   11318:	dc000017 	ldw	r16,0(sp)
   1131c:	dec00304 	addi	sp,sp,12
   11320:	f800283a 	ret

00011324 <puts>:
   11324:	00800074 	movhi	r2,1
   11328:	1089a004 	addi	r2,r2,9856
   1132c:	200b883a 	mov	r5,r4
   11330:	11000017 	ldw	r4,0(r2)
   11334:	00112a41 	jmpi	112a4 <_puts_r>

00011338 <strcat>:
   11338:	2005883a 	mov	r2,r4
   1133c:	2007883a 	mov	r3,r4
   11340:	19000007 	ldb	r4,0(r3)
   11344:	20000226 	beq	r4,zero,11350 <strcat+0x18>
   11348:	18c00044 	addi	r3,r3,1
   1134c:	003ffc06 	br	11340 <__alt_data_end+0xffff1340>
   11350:	29800003 	ldbu	r6,0(r5)
   11354:	18c00044 	addi	r3,r3,1
   11358:	29400044 	addi	r5,r5,1
   1135c:	19bfffc5 	stb	r6,-1(r3)
   11360:	31803fcc 	andi	r6,r6,255
   11364:	3180201c 	xori	r6,r6,128
   11368:	31bfe004 	addi	r6,r6,-128
   1136c:	303ff81e 	bne	r6,zero,11350 <__alt_data_end+0xffff1350>
   11370:	f800283a 	ret

00011374 <strlen>:
   11374:	2005883a 	mov	r2,r4
   11378:	10c00007 	ldb	r3,0(r2)
   1137c:	18000226 	beq	r3,zero,11388 <strlen+0x14>
   11380:	10800044 	addi	r2,r2,1
   11384:	003ffc06 	br	11378 <__alt_data_end+0xffff1378>
   11388:	1105c83a 	sub	r2,r2,r4
   1138c:	f800283a 	ret

00011390 <print_repeat>:
   11390:	defffb04 	addi	sp,sp,-20
   11394:	dc800315 	stw	r18,12(sp)
   11398:	dc400215 	stw	r17,8(sp)
   1139c:	dc000115 	stw	r16,4(sp)
   113a0:	dfc00415 	stw	ra,16(sp)
   113a4:	2025883a 	mov	r18,r4
   113a8:	2823883a 	mov	r17,r5
   113ac:	d9800005 	stb	r6,0(sp)
   113b0:	3821883a 	mov	r16,r7
   113b4:	04000a0e 	bge	zero,r16,113e0 <print_repeat+0x50>
   113b8:	88800117 	ldw	r2,4(r17)
   113bc:	01c00044 	movi	r7,1
   113c0:	d80d883a 	mov	r6,sp
   113c4:	880b883a 	mov	r5,r17
   113c8:	9009883a 	mov	r4,r18
   113cc:	103ee83a 	callr	r2
   113d0:	843fffc4 	addi	r16,r16,-1
   113d4:	103ff726 	beq	r2,zero,113b4 <__alt_data_end+0xffff13b4>
   113d8:	00bfffc4 	movi	r2,-1
   113dc:	00000106 	br	113e4 <print_repeat+0x54>
   113e0:	0005883a 	mov	r2,zero
   113e4:	dfc00417 	ldw	ra,16(sp)
   113e8:	dc800317 	ldw	r18,12(sp)
   113ec:	dc400217 	ldw	r17,8(sp)
   113f0:	dc000117 	ldw	r16,4(sp)
   113f4:	dec00504 	addi	sp,sp,20
   113f8:	f800283a 	ret

000113fc <___vfprintf_internal_r>:
   113fc:	deffe504 	addi	sp,sp,-108
   11400:	d8c00804 	addi	r3,sp,32
   11404:	ddc01815 	stw	r23,96(sp)
   11408:	dd801715 	stw	r22,92(sp)
   1140c:	dd401615 	stw	r21,88(sp)
   11410:	dd001515 	stw	r20,84(sp)
   11414:	dcc01415 	stw	r19,80(sp)
   11418:	dc801315 	stw	r18,76(sp)
   1141c:	dc401215 	stw	r17,72(sp)
   11420:	dc001115 	stw	r16,68(sp)
   11424:	dfc01a15 	stw	ra,104(sp)
   11428:	df001915 	stw	fp,100(sp)
   1142c:	2029883a 	mov	r20,r4
   11430:	2823883a 	mov	r17,r5
   11434:	382d883a 	mov	r22,r7
   11438:	d9800f15 	stw	r6,60(sp)
   1143c:	0021883a 	mov	r16,zero
   11440:	d8000e15 	stw	zero,56(sp)
   11444:	d8000a15 	stw	zero,40(sp)
   11448:	002b883a 	mov	r21,zero
   1144c:	0027883a 	mov	r19,zero
   11450:	0025883a 	mov	r18,zero
   11454:	d8000c15 	stw	zero,48(sp)
   11458:	d8000b15 	stw	zero,44(sp)
   1145c:	002f883a 	mov	r23,zero
   11460:	d8c00915 	stw	r3,36(sp)
   11464:	d8c00f17 	ldw	r3,60(sp)
   11468:	19000003 	ldbu	r4,0(r3)
   1146c:	20803fcc 	andi	r2,r4,255
   11470:	1080201c 	xori	r2,r2,128
   11474:	10bfe004 	addi	r2,r2,-128
   11478:	10011e26 	beq	r2,zero,118f4 <___vfprintf_internal_r+0x4f8>
   1147c:	00c00044 	movi	r3,1
   11480:	b8c01426 	beq	r23,r3,114d4 <___vfprintf_internal_r+0xd8>
   11484:	1dc00216 	blt	r3,r23,11490 <___vfprintf_internal_r+0x94>
   11488:	b8000626 	beq	r23,zero,114a4 <___vfprintf_internal_r+0xa8>
   1148c:	00011506 	br	118e4 <___vfprintf_internal_r+0x4e8>
   11490:	01400084 	movi	r5,2
   11494:	b9401d26 	beq	r23,r5,1150c <___vfprintf_internal_r+0x110>
   11498:	014000c4 	movi	r5,3
   1149c:	b9402b26 	beq	r23,r5,1154c <___vfprintf_internal_r+0x150>
   114a0:	00011006 	br	118e4 <___vfprintf_internal_r+0x4e8>
   114a4:	01400944 	movi	r5,37
   114a8:	1140fc26 	beq	r2,r5,1189c <___vfprintf_internal_r+0x4a0>
   114ac:	88800117 	ldw	r2,4(r17)
   114b0:	d9000005 	stb	r4,0(sp)
   114b4:	01c00044 	movi	r7,1
   114b8:	d80d883a 	mov	r6,sp
   114bc:	880b883a 	mov	r5,r17
   114c0:	a009883a 	mov	r4,r20
   114c4:	103ee83a 	callr	r2
   114c8:	1000d81e 	bne	r2,zero,1182c <___vfprintf_internal_r+0x430>
   114cc:	84000044 	addi	r16,r16,1
   114d0:	00010406 	br	118e4 <___vfprintf_internal_r+0x4e8>
   114d4:	01400c04 	movi	r5,48
   114d8:	1140fa26 	beq	r2,r5,118c4 <___vfprintf_internal_r+0x4c8>
   114dc:	01400944 	movi	r5,37
   114e0:	11400a1e 	bne	r2,r5,1150c <___vfprintf_internal_r+0x110>
   114e4:	d8800005 	stb	r2,0(sp)
   114e8:	88800117 	ldw	r2,4(r17)
   114ec:	b80f883a 	mov	r7,r23
   114f0:	d80d883a 	mov	r6,sp
   114f4:	880b883a 	mov	r5,r17
   114f8:	a009883a 	mov	r4,r20
   114fc:	103ee83a 	callr	r2
   11500:	1000ca1e 	bne	r2,zero,1182c <___vfprintf_internal_r+0x430>
   11504:	84000044 	addi	r16,r16,1
   11508:	0000f506 	br	118e0 <___vfprintf_internal_r+0x4e4>
   1150c:	25fff404 	addi	r23,r4,-48
   11510:	bdc03fcc 	andi	r23,r23,255
   11514:	00c00244 	movi	r3,9
   11518:	1dc00936 	bltu	r3,r23,11540 <___vfprintf_internal_r+0x144>
   1151c:	00bfffc4 	movi	r2,-1
   11520:	90800426 	beq	r18,r2,11534 <___vfprintf_internal_r+0x138>
   11524:	01400284 	movi	r5,10
   11528:	9009883a 	mov	r4,r18
   1152c:	00111d40 	call	111d4 <__mulsi3>
   11530:	00000106 	br	11538 <___vfprintf_internal_r+0x13c>
   11534:	0005883a 	mov	r2,zero
   11538:	b8a5883a 	add	r18,r23,r2
   1153c:	0000e206 	br	118c8 <___vfprintf_internal_r+0x4cc>
   11540:	01400b84 	movi	r5,46
   11544:	1140e426 	beq	r2,r5,118d8 <___vfprintf_internal_r+0x4dc>
   11548:	05c00084 	movi	r23,2
   1154c:	213ff404 	addi	r4,r4,-48
   11550:	27003fcc 	andi	fp,r4,255
   11554:	00c00244 	movi	r3,9
   11558:	1f000936 	bltu	r3,fp,11580 <___vfprintf_internal_r+0x184>
   1155c:	00bfffc4 	movi	r2,-1
   11560:	98800426 	beq	r19,r2,11574 <___vfprintf_internal_r+0x178>
   11564:	01400284 	movi	r5,10
   11568:	9809883a 	mov	r4,r19
   1156c:	00111d40 	call	111d4 <__mulsi3>
   11570:	00000106 	br	11578 <___vfprintf_internal_r+0x17c>
   11574:	0005883a 	mov	r2,zero
   11578:	e0a7883a 	add	r19,fp,r2
   1157c:	0000d906 	br	118e4 <___vfprintf_internal_r+0x4e8>
   11580:	00c01b04 	movi	r3,108
   11584:	10c0d226 	beq	r2,r3,118d0 <___vfprintf_internal_r+0x4d4>
   11588:	013fffc4 	movi	r4,-1
   1158c:	99000226 	beq	r19,r4,11598 <___vfprintf_internal_r+0x19c>
   11590:	d8000b15 	stw	zero,44(sp)
   11594:	00000106 	br	1159c <___vfprintf_internal_r+0x1a0>
   11598:	04c00044 	movi	r19,1
   1159c:	01001a44 	movi	r4,105
   115a0:	11001626 	beq	r2,r4,115fc <___vfprintf_internal_r+0x200>
   115a4:	20800916 	blt	r4,r2,115cc <___vfprintf_internal_r+0x1d0>
   115a8:	010018c4 	movi	r4,99
   115ac:	11008826 	beq	r2,r4,117d0 <___vfprintf_internal_r+0x3d4>
   115b0:	01001904 	movi	r4,100
   115b4:	11001126 	beq	r2,r4,115fc <___vfprintf_internal_r+0x200>
   115b8:	01001604 	movi	r4,88
   115bc:	1100c81e 	bne	r2,r4,118e0 <___vfprintf_internal_r+0x4e4>
   115c0:	00c00044 	movi	r3,1
   115c4:	d8c00e15 	stw	r3,56(sp)
   115c8:	00001506 	br	11620 <___vfprintf_internal_r+0x224>
   115cc:	01001cc4 	movi	r4,115
   115d0:	11009826 	beq	r2,r4,11834 <___vfprintf_internal_r+0x438>
   115d4:	20800416 	blt	r4,r2,115e8 <___vfprintf_internal_r+0x1ec>
   115d8:	01001bc4 	movi	r4,111
   115dc:	1100c01e 	bne	r2,r4,118e0 <___vfprintf_internal_r+0x4e4>
   115e0:	05400204 	movi	r21,8
   115e4:	00000f06 	br	11624 <___vfprintf_internal_r+0x228>
   115e8:	01001d44 	movi	r4,117
   115ec:	11000d26 	beq	r2,r4,11624 <___vfprintf_internal_r+0x228>
   115f0:	01001e04 	movi	r4,120
   115f4:	11000a26 	beq	r2,r4,11620 <___vfprintf_internal_r+0x224>
   115f8:	0000b906 	br	118e0 <___vfprintf_internal_r+0x4e4>
   115fc:	d8c00a17 	ldw	r3,40(sp)
   11600:	b7000104 	addi	fp,r22,4
   11604:	18000726 	beq	r3,zero,11624 <___vfprintf_internal_r+0x228>
   11608:	df000d15 	stw	fp,52(sp)
   1160c:	b5c00017 	ldw	r23,0(r22)
   11610:	b800080e 	bge	r23,zero,11634 <___vfprintf_internal_r+0x238>
   11614:	05efc83a 	sub	r23,zero,r23
   11618:	02400044 	movi	r9,1
   1161c:	00000606 	br	11638 <___vfprintf_internal_r+0x23c>
   11620:	05400404 	movi	r21,16
   11624:	b0c00104 	addi	r3,r22,4
   11628:	d8c00d15 	stw	r3,52(sp)
   1162c:	b5c00017 	ldw	r23,0(r22)
   11630:	d8000a15 	stw	zero,40(sp)
   11634:	0013883a 	mov	r9,zero
   11638:	d839883a 	mov	fp,sp
   1163c:	b8001726 	beq	r23,zero,1169c <___vfprintf_internal_r+0x2a0>
   11640:	a80b883a 	mov	r5,r21
   11644:	b809883a 	mov	r4,r23
   11648:	da401015 	stw	r9,64(sp)
   1164c:	0011b4c0 	call	11b4c <__udivsi3>
   11650:	a80b883a 	mov	r5,r21
   11654:	1009883a 	mov	r4,r2
   11658:	102d883a 	mov	r22,r2
   1165c:	00111d40 	call	111d4 <__mulsi3>
   11660:	b885c83a 	sub	r2,r23,r2
   11664:	00c00244 	movi	r3,9
   11668:	da401017 	ldw	r9,64(sp)
   1166c:	18800216 	blt	r3,r2,11678 <___vfprintf_internal_r+0x27c>
   11670:	10800c04 	addi	r2,r2,48
   11674:	00000506 	br	1168c <___vfprintf_internal_r+0x290>
   11678:	d8c00e17 	ldw	r3,56(sp)
   1167c:	18000226 	beq	r3,zero,11688 <___vfprintf_internal_r+0x28c>
   11680:	10800dc4 	addi	r2,r2,55
   11684:	00000106 	br	1168c <___vfprintf_internal_r+0x290>
   11688:	108015c4 	addi	r2,r2,87
   1168c:	e0800005 	stb	r2,0(fp)
   11690:	b02f883a 	mov	r23,r22
   11694:	e7000044 	addi	fp,fp,1
   11698:	003fe806 	br	1163c <__alt_data_end+0xffff163c>
   1169c:	e6efc83a 	sub	r23,fp,sp
   116a0:	9dc5c83a 	sub	r2,r19,r23
   116a4:	0080090e 	bge	zero,r2,116cc <___vfprintf_internal_r+0x2d0>
   116a8:	e085883a 	add	r2,fp,r2
   116ac:	01400c04 	movi	r5,48
   116b0:	d8c00917 	ldw	r3,36(sp)
   116b4:	e009883a 	mov	r4,fp
   116b8:	e0c0032e 	bgeu	fp,r3,116c8 <___vfprintf_internal_r+0x2cc>
   116bc:	e7000044 	addi	fp,fp,1
   116c0:	21400005 	stb	r5,0(r4)
   116c4:	e0bffa1e 	bne	fp,r2,116b0 <__alt_data_end+0xffff16b0>
   116c8:	e6efc83a 	sub	r23,fp,sp
   116cc:	d8c00b17 	ldw	r3,44(sp)
   116d0:	4dd1883a 	add	r8,r9,r23
   116d4:	922dc83a 	sub	r22,r18,r8
   116d8:	18001626 	beq	r3,zero,11734 <___vfprintf_internal_r+0x338>
   116dc:	48000a26 	beq	r9,zero,11708 <___vfprintf_internal_r+0x30c>
   116e0:	00800b44 	movi	r2,45
   116e4:	d8800805 	stb	r2,32(sp)
   116e8:	88800117 	ldw	r2,4(r17)
   116ec:	01c00044 	movi	r7,1
   116f0:	d9800804 	addi	r6,sp,32
   116f4:	880b883a 	mov	r5,r17
   116f8:	a009883a 	mov	r4,r20
   116fc:	103ee83a 	callr	r2
   11700:	10004a1e 	bne	r2,zero,1182c <___vfprintf_internal_r+0x430>
   11704:	84000044 	addi	r16,r16,1
   11708:	0580070e 	bge	zero,r22,11728 <___vfprintf_internal_r+0x32c>
   1170c:	b00f883a 	mov	r7,r22
   11710:	01800c04 	movi	r6,48
   11714:	880b883a 	mov	r5,r17
   11718:	a009883a 	mov	r4,r20
   1171c:	00113900 	call	11390 <print_repeat>
   11720:	1000421e 	bne	r2,zero,1182c <___vfprintf_internal_r+0x430>
   11724:	85a1883a 	add	r16,r16,r22
   11728:	e02d883a 	mov	r22,fp
   1172c:	bf2fc83a 	sub	r23,r23,fp
   11730:	00002006 	br	117b4 <___vfprintf_internal_r+0x3b8>
   11734:	0580090e 	bge	zero,r22,1175c <___vfprintf_internal_r+0x360>
   11738:	b00f883a 	mov	r7,r22
   1173c:	01800804 	movi	r6,32
   11740:	880b883a 	mov	r5,r17
   11744:	a009883a 	mov	r4,r20
   11748:	da401015 	stw	r9,64(sp)
   1174c:	00113900 	call	11390 <print_repeat>
   11750:	da401017 	ldw	r9,64(sp)
   11754:	1000351e 	bne	r2,zero,1182c <___vfprintf_internal_r+0x430>
   11758:	85a1883a 	add	r16,r16,r22
   1175c:	483ff226 	beq	r9,zero,11728 <__alt_data_end+0xffff1728>
   11760:	00800b44 	movi	r2,45
   11764:	d8800805 	stb	r2,32(sp)
   11768:	88800117 	ldw	r2,4(r17)
   1176c:	01c00044 	movi	r7,1
   11770:	d9800804 	addi	r6,sp,32
   11774:	880b883a 	mov	r5,r17
   11778:	a009883a 	mov	r4,r20
   1177c:	103ee83a 	callr	r2
   11780:	10002a1e 	bne	r2,zero,1182c <___vfprintf_internal_r+0x430>
   11784:	84000044 	addi	r16,r16,1
   11788:	003fe706 	br	11728 <__alt_data_end+0xffff1728>
   1178c:	b5bfffc4 	addi	r22,r22,-1
   11790:	b0800003 	ldbu	r2,0(r22)
   11794:	01c00044 	movi	r7,1
   11798:	d9800804 	addi	r6,sp,32
   1179c:	d8800805 	stb	r2,32(sp)
   117a0:	88800117 	ldw	r2,4(r17)
   117a4:	880b883a 	mov	r5,r17
   117a8:	a009883a 	mov	r4,r20
   117ac:	103ee83a 	callr	r2
   117b0:	10001e1e 	bne	r2,zero,1182c <___vfprintf_internal_r+0x430>
   117b4:	8585c83a 	sub	r2,r16,r22
   117b8:	b5c9883a 	add	r4,r22,r23
   117bc:	e085883a 	add	r2,fp,r2
   117c0:	013ff216 	blt	zero,r4,1178c <__alt_data_end+0xffff178c>
   117c4:	1021883a 	mov	r16,r2
   117c8:	dd800d17 	ldw	r22,52(sp)
   117cc:	00004406 	br	118e0 <___vfprintf_internal_r+0x4e4>
   117d0:	00800044 	movi	r2,1
   117d4:	1480080e 	bge	r2,r18,117f8 <___vfprintf_internal_r+0x3fc>
   117d8:	95ffffc4 	addi	r23,r18,-1
   117dc:	b80f883a 	mov	r7,r23
   117e0:	01800804 	movi	r6,32
   117e4:	880b883a 	mov	r5,r17
   117e8:	a009883a 	mov	r4,r20
   117ec:	00113900 	call	11390 <print_repeat>
   117f0:	10000e1e 	bne	r2,zero,1182c <___vfprintf_internal_r+0x430>
   117f4:	85e1883a 	add	r16,r16,r23
   117f8:	b0800017 	ldw	r2,0(r22)
   117fc:	01c00044 	movi	r7,1
   11800:	d80d883a 	mov	r6,sp
   11804:	d8800005 	stb	r2,0(sp)
   11808:	88800117 	ldw	r2,4(r17)
   1180c:	880b883a 	mov	r5,r17
   11810:	a009883a 	mov	r4,r20
   11814:	b5c00104 	addi	r23,r22,4
   11818:	103ee83a 	callr	r2
   1181c:	1000031e 	bne	r2,zero,1182c <___vfprintf_internal_r+0x430>
   11820:	84000044 	addi	r16,r16,1
   11824:	b82d883a 	mov	r22,r23
   11828:	00002d06 	br	118e0 <___vfprintf_internal_r+0x4e4>
   1182c:	00bfffc4 	movi	r2,-1
   11830:	00003106 	br	118f8 <___vfprintf_internal_r+0x4fc>
   11834:	b5c00017 	ldw	r23,0(r22)
   11838:	b7000104 	addi	fp,r22,4
   1183c:	b809883a 	mov	r4,r23
   11840:	00113740 	call	11374 <strlen>
   11844:	9091c83a 	sub	r8,r18,r2
   11848:	102d883a 	mov	r22,r2
   1184c:	0200090e 	bge	zero,r8,11874 <___vfprintf_internal_r+0x478>
   11850:	400f883a 	mov	r7,r8
   11854:	01800804 	movi	r6,32
   11858:	880b883a 	mov	r5,r17
   1185c:	a009883a 	mov	r4,r20
   11860:	da001015 	stw	r8,64(sp)
   11864:	00113900 	call	11390 <print_repeat>
   11868:	da001017 	ldw	r8,64(sp)
   1186c:	103fef1e 	bne	r2,zero,1182c <__alt_data_end+0xffff182c>
   11870:	8221883a 	add	r16,r16,r8
   11874:	88800117 	ldw	r2,4(r17)
   11878:	b00f883a 	mov	r7,r22
   1187c:	b80d883a 	mov	r6,r23
   11880:	880b883a 	mov	r5,r17
   11884:	a009883a 	mov	r4,r20
   11888:	103ee83a 	callr	r2
   1188c:	103fe71e 	bne	r2,zero,1182c <__alt_data_end+0xffff182c>
   11890:	85a1883a 	add	r16,r16,r22
   11894:	e02d883a 	mov	r22,fp
   11898:	00001106 	br	118e0 <___vfprintf_internal_r+0x4e4>
   1189c:	00c00044 	movi	r3,1
   118a0:	04ffffc4 	movi	r19,-1
   118a4:	d8000e15 	stw	zero,56(sp)
   118a8:	d8c00a15 	stw	r3,40(sp)
   118ac:	05400284 	movi	r21,10
   118b0:	9825883a 	mov	r18,r19
   118b4:	d8000c15 	stw	zero,48(sp)
   118b8:	d8000b15 	stw	zero,44(sp)
   118bc:	182f883a 	mov	r23,r3
   118c0:	00000806 	br	118e4 <___vfprintf_internal_r+0x4e8>
   118c4:	ddc00b15 	stw	r23,44(sp)
   118c8:	05c00084 	movi	r23,2
   118cc:	00000506 	br	118e4 <___vfprintf_internal_r+0x4e8>
   118d0:	00c00044 	movi	r3,1
   118d4:	d8c00c15 	stw	r3,48(sp)
   118d8:	05c000c4 	movi	r23,3
   118dc:	00000106 	br	118e4 <___vfprintf_internal_r+0x4e8>
   118e0:	002f883a 	mov	r23,zero
   118e4:	d8c00f17 	ldw	r3,60(sp)
   118e8:	18c00044 	addi	r3,r3,1
   118ec:	d8c00f15 	stw	r3,60(sp)
   118f0:	003edc06 	br	11464 <__alt_data_end+0xffff1464>
   118f4:	8005883a 	mov	r2,r16
   118f8:	dfc01a17 	ldw	ra,104(sp)
   118fc:	df001917 	ldw	fp,100(sp)
   11900:	ddc01817 	ldw	r23,96(sp)
   11904:	dd801717 	ldw	r22,92(sp)
   11908:	dd401617 	ldw	r21,88(sp)
   1190c:	dd001517 	ldw	r20,84(sp)
   11910:	dcc01417 	ldw	r19,80(sp)
   11914:	dc801317 	ldw	r18,76(sp)
   11918:	dc401217 	ldw	r17,72(sp)
   1191c:	dc001117 	ldw	r16,68(sp)
   11920:	dec01b04 	addi	sp,sp,108
   11924:	f800283a 	ret

00011928 <__vfprintf_internal>:
   11928:	00800074 	movhi	r2,1
   1192c:	1089a004 	addi	r2,r2,9856
   11930:	300f883a 	mov	r7,r6
   11934:	280d883a 	mov	r6,r5
   11938:	200b883a 	mov	r5,r4
   1193c:	11000017 	ldw	r4,0(r2)
   11940:	00113fc1 	jmpi	113fc <___vfprintf_internal_r>

00011944 <__sfvwrite_small_dev>:
   11944:	2880000b 	ldhu	r2,0(r5)
   11948:	1080020c 	andi	r2,r2,8
   1194c:	10002126 	beq	r2,zero,119d4 <__sfvwrite_small_dev+0x90>
   11950:	2880008f 	ldh	r2,2(r5)
   11954:	defffa04 	addi	sp,sp,-24
   11958:	dc000015 	stw	r16,0(sp)
   1195c:	dfc00515 	stw	ra,20(sp)
   11960:	dd000415 	stw	r20,16(sp)
   11964:	dcc00315 	stw	r19,12(sp)
   11968:	dc800215 	stw	r18,8(sp)
   1196c:	dc400115 	stw	r17,4(sp)
   11970:	2821883a 	mov	r16,r5
   11974:	10001216 	blt	r2,zero,119c0 <__sfvwrite_small_dev+0x7c>
   11978:	2027883a 	mov	r19,r4
   1197c:	3025883a 	mov	r18,r6
   11980:	3823883a 	mov	r17,r7
   11984:	05010004 	movi	r20,1024
   11988:	04400b0e 	bge	zero,r17,119b8 <__sfvwrite_small_dev+0x74>
   1198c:	880f883a 	mov	r7,r17
   11990:	a440010e 	bge	r20,r17,11998 <__sfvwrite_small_dev+0x54>
   11994:	01c10004 	movi	r7,1024
   11998:	8140008f 	ldh	r5,2(r16)
   1199c:	900d883a 	mov	r6,r18
   119a0:	9809883a 	mov	r4,r19
   119a4:	00119fc0 	call	119fc <_write_r>
   119a8:	0080050e 	bge	zero,r2,119c0 <__sfvwrite_small_dev+0x7c>
   119ac:	88a3c83a 	sub	r17,r17,r2
   119b0:	90a5883a 	add	r18,r18,r2
   119b4:	003ff406 	br	11988 <__alt_data_end+0xffff1988>
   119b8:	0005883a 	mov	r2,zero
   119bc:	00000706 	br	119dc <__sfvwrite_small_dev+0x98>
   119c0:	8080000b 	ldhu	r2,0(r16)
   119c4:	10801014 	ori	r2,r2,64
   119c8:	8080000d 	sth	r2,0(r16)
   119cc:	00bfffc4 	movi	r2,-1
   119d0:	00000206 	br	119dc <__sfvwrite_small_dev+0x98>
   119d4:	00bfffc4 	movi	r2,-1
   119d8:	f800283a 	ret
   119dc:	dfc00517 	ldw	ra,20(sp)
   119e0:	dd000417 	ldw	r20,16(sp)
   119e4:	dcc00317 	ldw	r19,12(sp)
   119e8:	dc800217 	ldw	r18,8(sp)
   119ec:	dc400117 	ldw	r17,4(sp)
   119f0:	dc000017 	ldw	r16,0(sp)
   119f4:	dec00604 	addi	sp,sp,24
   119f8:	f800283a 	ret

000119fc <_write_r>:
   119fc:	defffd04 	addi	sp,sp,-12
   11a00:	dc000015 	stw	r16,0(sp)
   11a04:	04000074 	movhi	r16,1
   11a08:	dc400115 	stw	r17,4(sp)
   11a0c:	840a1704 	addi	r16,r16,10332
   11a10:	2023883a 	mov	r17,r4
   11a14:	2809883a 	mov	r4,r5
   11a18:	300b883a 	mov	r5,r6
   11a1c:	380d883a 	mov	r6,r7
   11a20:	dfc00215 	stw	ra,8(sp)
   11a24:	80000015 	stw	zero,0(r16)
   11a28:	0011e0c0 	call	11e0c <write>
   11a2c:	00ffffc4 	movi	r3,-1
   11a30:	10c0031e 	bne	r2,r3,11a40 <_write_r+0x44>
   11a34:	80c00017 	ldw	r3,0(r16)
   11a38:	18000126 	beq	r3,zero,11a40 <_write_r+0x44>
   11a3c:	88c00015 	stw	r3,0(r17)
   11a40:	dfc00217 	ldw	ra,8(sp)
   11a44:	dc400117 	ldw	r17,4(sp)
   11a48:	dc000017 	ldw	r16,0(sp)
   11a4c:	dec00304 	addi	sp,sp,12
   11a50:	f800283a 	ret

00011a54 <__divsi3>:
   11a54:	20001b16 	blt	r4,zero,11ac4 <__divsi3+0x70>
   11a58:	000f883a 	mov	r7,zero
   11a5c:	28001616 	blt	r5,zero,11ab8 <__divsi3+0x64>
   11a60:	200d883a 	mov	r6,r4
   11a64:	29001a2e 	bgeu	r5,r4,11ad0 <__divsi3+0x7c>
   11a68:	00800804 	movi	r2,32
   11a6c:	00c00044 	movi	r3,1
   11a70:	00000106 	br	11a78 <__divsi3+0x24>
   11a74:	10000d26 	beq	r2,zero,11aac <__divsi3+0x58>
   11a78:	294b883a 	add	r5,r5,r5
   11a7c:	10bfffc4 	addi	r2,r2,-1
   11a80:	18c7883a 	add	r3,r3,r3
   11a84:	293ffb36 	bltu	r5,r4,11a74 <__alt_data_end+0xffff1a74>
   11a88:	0005883a 	mov	r2,zero
   11a8c:	18000726 	beq	r3,zero,11aac <__divsi3+0x58>
   11a90:	0005883a 	mov	r2,zero
   11a94:	31400236 	bltu	r6,r5,11aa0 <__divsi3+0x4c>
   11a98:	314dc83a 	sub	r6,r6,r5
   11a9c:	10c4b03a 	or	r2,r2,r3
   11aa0:	1806d07a 	srli	r3,r3,1
   11aa4:	280ad07a 	srli	r5,r5,1
   11aa8:	183ffa1e 	bne	r3,zero,11a94 <__alt_data_end+0xffff1a94>
   11aac:	38000126 	beq	r7,zero,11ab4 <__divsi3+0x60>
   11ab0:	0085c83a 	sub	r2,zero,r2
   11ab4:	f800283a 	ret
   11ab8:	014bc83a 	sub	r5,zero,r5
   11abc:	39c0005c 	xori	r7,r7,1
   11ac0:	003fe706 	br	11a60 <__alt_data_end+0xffff1a60>
   11ac4:	0109c83a 	sub	r4,zero,r4
   11ac8:	01c00044 	movi	r7,1
   11acc:	003fe306 	br	11a5c <__alt_data_end+0xffff1a5c>
   11ad0:	00c00044 	movi	r3,1
   11ad4:	003fee06 	br	11a90 <__alt_data_end+0xffff1a90>

00011ad8 <__modsi3>:
   11ad8:	20001716 	blt	r4,zero,11b38 <__modsi3+0x60>
   11adc:	000f883a 	mov	r7,zero
   11ae0:	2005883a 	mov	r2,r4
   11ae4:	28001216 	blt	r5,zero,11b30 <__modsi3+0x58>
   11ae8:	2900162e 	bgeu	r5,r4,11b44 <__modsi3+0x6c>
   11aec:	01800804 	movi	r6,32
   11af0:	00c00044 	movi	r3,1
   11af4:	00000106 	br	11afc <__modsi3+0x24>
   11af8:	30000a26 	beq	r6,zero,11b24 <__modsi3+0x4c>
   11afc:	294b883a 	add	r5,r5,r5
   11b00:	31bfffc4 	addi	r6,r6,-1
   11b04:	18c7883a 	add	r3,r3,r3
   11b08:	293ffb36 	bltu	r5,r4,11af8 <__alt_data_end+0xffff1af8>
   11b0c:	18000526 	beq	r3,zero,11b24 <__modsi3+0x4c>
   11b10:	1806d07a 	srli	r3,r3,1
   11b14:	11400136 	bltu	r2,r5,11b1c <__modsi3+0x44>
   11b18:	1145c83a 	sub	r2,r2,r5
   11b1c:	280ad07a 	srli	r5,r5,1
   11b20:	183ffb1e 	bne	r3,zero,11b10 <__alt_data_end+0xffff1b10>
   11b24:	38000126 	beq	r7,zero,11b2c <__modsi3+0x54>
   11b28:	0085c83a 	sub	r2,zero,r2
   11b2c:	f800283a 	ret
   11b30:	014bc83a 	sub	r5,zero,r5
   11b34:	003fec06 	br	11ae8 <__alt_data_end+0xffff1ae8>
   11b38:	0109c83a 	sub	r4,zero,r4
   11b3c:	01c00044 	movi	r7,1
   11b40:	003fe706 	br	11ae0 <__alt_data_end+0xffff1ae0>
   11b44:	00c00044 	movi	r3,1
   11b48:	003ff106 	br	11b10 <__alt_data_end+0xffff1b10>

00011b4c <__udivsi3>:
   11b4c:	200d883a 	mov	r6,r4
   11b50:	2900152e 	bgeu	r5,r4,11ba8 <__udivsi3+0x5c>
   11b54:	28001416 	blt	r5,zero,11ba8 <__udivsi3+0x5c>
   11b58:	00800804 	movi	r2,32
   11b5c:	00c00044 	movi	r3,1
   11b60:	00000206 	br	11b6c <__udivsi3+0x20>
   11b64:	10000e26 	beq	r2,zero,11ba0 <__udivsi3+0x54>
   11b68:	28000516 	blt	r5,zero,11b80 <__udivsi3+0x34>
   11b6c:	294b883a 	add	r5,r5,r5
   11b70:	10bfffc4 	addi	r2,r2,-1
   11b74:	18c7883a 	add	r3,r3,r3
   11b78:	293ffa36 	bltu	r5,r4,11b64 <__alt_data_end+0xffff1b64>
   11b7c:	18000826 	beq	r3,zero,11ba0 <__udivsi3+0x54>
   11b80:	0005883a 	mov	r2,zero
   11b84:	31400236 	bltu	r6,r5,11b90 <__udivsi3+0x44>
   11b88:	314dc83a 	sub	r6,r6,r5
   11b8c:	10c4b03a 	or	r2,r2,r3
   11b90:	1806d07a 	srli	r3,r3,1
   11b94:	280ad07a 	srli	r5,r5,1
   11b98:	183ffa1e 	bne	r3,zero,11b84 <__alt_data_end+0xffff1b84>
   11b9c:	f800283a 	ret
   11ba0:	0005883a 	mov	r2,zero
   11ba4:	f800283a 	ret
   11ba8:	00c00044 	movi	r3,1
   11bac:	003ff406 	br	11b80 <__alt_data_end+0xffff1b80>

00011bb0 <__umodsi3>:
   11bb0:	2005883a 	mov	r2,r4
   11bb4:	2900122e 	bgeu	r5,r4,11c00 <__umodsi3+0x50>
   11bb8:	28001116 	blt	r5,zero,11c00 <__umodsi3+0x50>
   11bbc:	01800804 	movi	r6,32
   11bc0:	00c00044 	movi	r3,1
   11bc4:	00000206 	br	11bd0 <__umodsi3+0x20>
   11bc8:	30000c26 	beq	r6,zero,11bfc <__umodsi3+0x4c>
   11bcc:	28000516 	blt	r5,zero,11be4 <__umodsi3+0x34>
   11bd0:	294b883a 	add	r5,r5,r5
   11bd4:	31bfffc4 	addi	r6,r6,-1
   11bd8:	18c7883a 	add	r3,r3,r3
   11bdc:	293ffa36 	bltu	r5,r4,11bc8 <__alt_data_end+0xffff1bc8>
   11be0:	18000626 	beq	r3,zero,11bfc <__umodsi3+0x4c>
   11be4:	1806d07a 	srli	r3,r3,1
   11be8:	11400136 	bltu	r2,r5,11bf0 <__umodsi3+0x40>
   11bec:	1145c83a 	sub	r2,r2,r5
   11bf0:	280ad07a 	srli	r5,r5,1
   11bf4:	183ffb1e 	bne	r3,zero,11be4 <__alt_data_end+0xffff1be4>
   11bf8:	f800283a 	ret
   11bfc:	f800283a 	ret
   11c00:	00c00044 	movi	r3,1
   11c04:	003ff706 	br	11be4 <__alt_data_end+0xffff1be4>

00011c08 <alt_irq_register>:
                      alt_isr_func handler)
{
  int rc = -EINVAL;  
  alt_irq_context status;

  if (id < ALT_NIRQ)
   11c08:	008007c4 	movi	r2,31
   11c0c:	11002136 	bltu	r2,r4,11c94 <alt_irq_register+0x8c>
static ALT_INLINE alt_irq_context ALT_ALWAYS_INLINE 
       alt_irq_disable_all (void)
{
  alt_irq_context context;

  NIOS2_READ_STATUS (context);
   11c10:	000f303a 	rdctl	r7,status

  NIOS2_WRITE_STATUS (context & ~NIOS2_STATUS_PIE_MSK);
   11c14:	00ffff84 	movi	r3,-2
   11c18:	38c4703a 	and	r2,r7,r3
   11c1c:	1001703a 	wrctl	status,r2
     * state.
     */

    status = alt_irq_disable_all ();

    alt_irq[id].handler = handler;
   11c20:	200490fa 	slli	r2,r4,3
   11c24:	02000074 	movhi	r8,1
   11c28:	420a3d04 	addi	r8,r8,10484
   11c2c:	4085883a 	add	r2,r8,r2
   11c30:	11800015 	stw	r6,0(r2)
    alt_irq[id].context = context;
   11c34:	11400115 	stw	r5,4(r2)
   11c38:	00800044 	movi	r2,1

    rc = (handler) ? alt_irq_enable (id): alt_irq_disable (id);
   11c3c:	30000726 	beq	r6,zero,11c5c <alt_irq_register+0x54>
static ALT_INLINE alt_irq_context ALT_ALWAYS_INLINE 
       alt_irq_disable_all (void)
{
  alt_irq_context context;

  NIOS2_READ_STATUS (context);
   11c40:	000b303a 	rdctl	r5,status

  NIOS2_WRITE_STATUS (context & ~NIOS2_STATUS_PIE_MSK);
   11c44:	28c6703a 	and	r3,r5,r3
   11c48:	1801703a 	wrctl	status,r3
  alt_irq_context  status;
  extern volatile alt_u32 alt_irq_active;

  status = alt_irq_disable_all ();

  alt_irq_active |= (1 << id);
   11c4c:	d0e07b17 	ldw	r3,-32276(gp)
   11c50:	1104983a 	sll	r2,r2,r4
   11c54:	10c4b03a 	or	r2,r2,r3
   11c58:	00000706 	br	11c78 <alt_irq_register+0x70>
static ALT_INLINE alt_irq_context ALT_ALWAYS_INLINE 
       alt_irq_disable_all (void)
{
  alt_irq_context context;

  NIOS2_READ_STATUS (context);
   11c5c:	000b303a 	rdctl	r5,status

  NIOS2_WRITE_STATUS (context & ~NIOS2_STATUS_PIE_MSK);
   11c60:	28c6703a 	and	r3,r5,r3
   11c64:	1801703a 	wrctl	status,r3
  alt_irq_context  status;
  extern volatile alt_u32 alt_irq_active;

  status = alt_irq_disable_all ();

  alt_irq_active &= ~(1 << id);
   11c68:	1104983a 	sll	r2,r2,r4
   11c6c:	d0e07b17 	ldw	r3,-32276(gp)
   11c70:	0084303a 	nor	r2,zero,r2
   11c74:	10c4703a 	and	r2,r2,r3
   11c78:	d0a07b15 	stw	r2,-32276(gp)
  NIOS2_WRITE_IENABLE (alt_irq_active);
   11c7c:	d0a07b17 	ldw	r2,-32276(gp)
   11c80:	100170fa 	wrctl	ienable,r2
  status &= ~NIOS2_STATUS_PIE_MSK;
  status |= (context & NIOS2_STATUS_PIE_MSK);
  
  NIOS2_WRITE_STATUS (status);
#else
  NIOS2_WRITE_STATUS (context);
   11c84:	2801703a 	wrctl	status,r5
   11c88:	3801703a 	wrctl	status,r7
   11c8c:	0005883a 	mov	r2,zero
   11c90:	f800283a 	ret
 
int alt_irq_register (alt_u32 id, 
                      void* context, 
                      alt_isr_func handler)
{
  int rc = -EINVAL;  
   11c94:	00bffa84 	movi	r2,-22
    rc = (handler) ? alt_irq_enable (id): alt_irq_disable (id);

    alt_irq_enable_all(status);
  }
  return rc; 
}
   11c98:	f800283a 	ret

00011c9c <alt_load>:
 * there is no bootloader, so this application is responsible for loading to
 * RAM any sections that are required.
 */  

void alt_load (void)
{
   11c9c:	deffff04 	addi	sp,sp,-4
   11ca0:	01000074 	movhi	r4,1
   11ca4:	01400074 	movhi	r5,1
   11ca8:	dfc00015 	stw	ra,0(sp)
   11cac:	21094404 	addi	r4,r4,9488
   11cb0:	2949ac04 	addi	r5,r5,9904

static void ALT_INLINE alt_load_section (alt_u32* from, 
                                         alt_u32* to, 
                                         alt_u32* end)
{
  if (to != from)
   11cb4:	2140061e 	bne	r4,r5,11cd0 <alt_load+0x34>
   11cb8:	01000074 	movhi	r4,1
   11cbc:	01400074 	movhi	r5,1
   11cc0:	21000804 	addi	r4,r4,32
   11cc4:	29400804 	addi	r5,r5,32
   11cc8:	2140121e 	bne	r4,r5,11d14 <alt_load+0x78>
   11ccc:	00000b06 	br	11cfc <alt_load+0x60>
   11cd0:	00c00074 	movhi	r3,1
   11cd4:	18c9ac04 	addi	r3,r3,9904
   11cd8:	1907c83a 	sub	r3,r3,r4
   11cdc:	0005883a 	mov	r2,zero
  {
    while( to != end )
   11ce0:	10fff526 	beq	r2,r3,11cb8 <__alt_data_end+0xffff1cb8>
    {
      *to++ = *from++;
   11ce4:	114f883a 	add	r7,r2,r5
   11ce8:	39c00017 	ldw	r7,0(r7)
   11cec:	110d883a 	add	r6,r2,r4
   11cf0:	10800104 	addi	r2,r2,4
   11cf4:	31c00015 	stw	r7,0(r6)
   11cf8:	003ff906 	br	11ce0 <__alt_data_end+0xffff1ce0>
   11cfc:	01000074 	movhi	r4,1
   11d00:	01400074 	movhi	r5,1
   11d04:	2108d004 	addi	r4,r4,9024
   11d08:	2948d004 	addi	r5,r5,9024

static void ALT_INLINE alt_load_section (alt_u32* from, 
                                         alt_u32* to, 
                                         alt_u32* end)
{
  if (to != from)
   11d0c:	2140101e 	bne	r4,r5,11d50 <alt_load+0xb4>
   11d10:	00000b06 	br	11d40 <alt_load+0xa4>
   11d14:	00c00074 	movhi	r3,1
   11d18:	18c06004 	addi	r3,r3,384
   11d1c:	1907c83a 	sub	r3,r3,r4
   11d20:	0005883a 	mov	r2,zero
  {
    while( to != end )
   11d24:	10fff526 	beq	r2,r3,11cfc <__alt_data_end+0xffff1cfc>
    {
      *to++ = *from++;
   11d28:	114f883a 	add	r7,r2,r5
   11d2c:	39c00017 	ldw	r7,0(r7)
   11d30:	110d883a 	add	r6,r2,r4
   11d34:	10800104 	addi	r2,r2,4
   11d38:	31c00015 	stw	r7,0(r6)
   11d3c:	003ff906 	br	11d24 <__alt_data_end+0xffff1d24>
  
  /*
   * Now ensure that the caches are in synch.
   */
  
  alt_dcache_flush_all();
   11d40:	00120b80 	call	120b8 <alt_dcache_flush_all>
  alt_icache_flush_all();
}
   11d44:	dfc00017 	ldw	ra,0(sp)
   11d48:	dec00104 	addi	sp,sp,4
  /*
   * Now ensure that the caches are in synch.
   */
  
  alt_dcache_flush_all();
  alt_icache_flush_all();
   11d4c:	00121a41 	jmpi	121a4 <alt_icache_flush_all>
   11d50:	00c00074 	movhi	r3,1
   11d54:	18c94404 	addi	r3,r3,9488
   11d58:	1907c83a 	sub	r3,r3,r4

static void ALT_INLINE alt_load_section (alt_u32* from, 
                                         alt_u32* to, 
                                         alt_u32* end)
{
  if (to != from)
   11d5c:	0005883a 	mov	r2,zero
  {
    while( to != end )
   11d60:	18bff726 	beq	r3,r2,11d40 <__alt_data_end+0xffff1d40>
    {
      *to++ = *from++;
   11d64:	114f883a 	add	r7,r2,r5
   11d68:	39c00017 	ldw	r7,0(r7)
   11d6c:	110d883a 	add	r6,r2,r4
   11d70:	10800104 	addi	r2,r2,4
   11d74:	31c00015 	stw	r7,0(r6)
   11d78:	003ff906 	br	11d60 <__alt_data_end+0xffff1d60>

00011d7c <alt_main>:
 * devices/filesystems/components in the system; and call the entry point for
 * the users application, i.e. main().
 */

void alt_main (void)
{
   11d7c:	deffff04 	addi	sp,sp,-4
#endif

  /* ALT LOG - please see HAL/sys/alt_log_printf.h for details */
  ALT_LOG_PRINT_BOOT("[alt_main.c] Entering alt_main, calling alt_irq_init.\r\n");
  /* Initialize the interrupt controller. */
  alt_irq_init (NULL);
   11d80:	0009883a 	mov	r4,zero
 * devices/filesystems/components in the system; and call the entry point for
 * the users application, i.e. main().
 */

void alt_main (void)
{
   11d84:	dfc00015 	stw	ra,0(sp)
#endif

  /* ALT LOG - please see HAL/sys/alt_log_printf.h for details */
  ALT_LOG_PRINT_BOOT("[alt_main.c] Entering alt_main, calling alt_irq_init.\r\n");
  /* Initialize the interrupt controller. */
  alt_irq_init (NULL);
   11d88:	0011e6c0 	call	11e6c <alt_irq_init>
  ALT_LOG_PRINT_BOOT("[alt_main.c] Done OS Init, calling alt_sem_create.\r\n");
  ALT_SEM_CREATE (&alt_fd_list_lock, 1);

  /* Initialize the device drivers/software components. */
  ALT_LOG_PRINT_BOOT("[alt_main.c] Calling alt_sys_init.\r\n");
  alt_sys_init();
   11d8c:	0011e8c0 	call	11e8c <alt_sys_init>
   */

  ALT_LOG_PRINT_BOOT("[alt_main.c] Calling main.\r\n");

#ifdef ALT_NO_EXIT
  main (alt_argc, alt_argv, alt_envp);
   11d90:	d1a07c17 	ldw	r6,-32272(gp)
   11d94:	d1607d17 	ldw	r5,-32268(gp)
   11d98:	d1207e17 	ldw	r4,-32264(gp)
  close(STDOUT_FILENO);
  exit (result);
#endif

  ALT_LOG_PRINT_BOOT("[alt_main.c] After main - we should not be here?.\r\n");
}
   11d9c:	dfc00017 	ldw	ra,0(sp)
   11da0:	dec00104 	addi	sp,sp,4
   */

  ALT_LOG_PRINT_BOOT("[alt_main.c] Calling main.\r\n");

#ifdef ALT_NO_EXIT
  main (alt_argc, alt_argv, alt_envp);
   11da4:	00104c81 	jmpi	104c8 <main>

00011da8 <times>:
 * Obtain the system clock rate in ticks/s. 
 */

static ALT_INLINE alt_u32 ALT_ALWAYS_INLINE alt_ticks_per_second (void)
{
  return _alt_tick_rate;
   11da8:	d0e08017 	ldw	r3,-32256(gp)
 * alt_nticks() returns the elapsed number of system clock ticks since reset.
 */

static ALT_INLINE alt_u32 ALT_ALWAYS_INLINE alt_nticks (void)
{
  return _alt_nticks;
   11dac:	d0a07f17 	ldw	r2,-32260(gp)
{
  clock_t ticks = alt_nticks(); 

  /* If there is no system clock present, generate an error */

  if (!alt_ticks_per_second())
   11db0:	1800101e 	bne	r3,zero,11df4 <times+0x4c>

extern int errno;

static ALT_INLINE int* alt_get_errno(void)
{
  return ((alt_errno) ? alt_errno() : &errno);
   11db4:	d0a00c17 	ldw	r2,-32720(gp)
   11db8:	10000926 	beq	r2,zero,11de0 <times+0x38>
 *
 * ALT_TIMES is mapped onto the times() system call in alt_syscall.h
 */
 
clock_t ALT_TIMES (struct tms *buf)
{
   11dbc:	deffff04 	addi	sp,sp,-4
   11dc0:	dfc00015 	stw	ra,0(sp)
   11dc4:	103ee83a 	callr	r2

  /* If there is no system clock present, generate an error */

  if (!alt_ticks_per_second())
  {
    ALT_ERRNO = ENOSYS;
   11dc8:	00c01604 	movi	r3,88
   11dcc:	10c00015 	stw	r3,0(r2)
    return 0;
   11dd0:	0005883a 	mov	r2,zero
  buf->tms_stime  = ticks;
  buf->tms_cutime = 0;
  buf->tms_cstime = 0;

  return ticks;
}
   11dd4:	dfc00017 	ldw	ra,0(sp)
   11dd8:	dec00104 	addi	sp,sp,4
   11ddc:	f800283a 	ret
   11de0:	d0a07a04 	addi	r2,gp,-32280

  /* If there is no system clock present, generate an error */

  if (!alt_ticks_per_second())
  {
    ALT_ERRNO = ENOSYS;
   11de4:	00c01604 	movi	r3,88
   11de8:	10c00015 	stw	r3,0(r2)
    return 0;
   11dec:	0005883a 	mov	r2,zero
  buf->tms_stime  = ticks;
  buf->tms_cutime = 0;
  buf->tms_cstime = 0;

  return ticks;
}
   11df0:	f800283a 	ret
    return 0;
  }

  /* Otherwise return the elapsed time */

  buf->tms_utime  = 0;
   11df4:	20000015 	stw	zero,0(r4)
  buf->tms_stime  = ticks;
   11df8:	20800115 	stw	r2,4(r4)
  buf->tms_cutime = 0;
   11dfc:	20000215 	stw	zero,8(r4)
  buf->tms_cstime = 0;
   11e00:	20000315 	stw	zero,12(r4)

  return ticks;
   11e04:	f800283a 	ret

00011e08 <usleep>:
int ALT_USLEEP (useconds_t us)
#else
unsigned int ALT_USLEEP (unsigned int us)
#endif
{
  return alt_busy_sleep(us);
   11e08:	00120301 	jmpi	12030 <alt_busy_sleep>

00011e0c <write>:
#if !defined(ALT_STDOUT_PRESENT) && !defined(ALT_STDERR_PRESENT)
    /* Generate a link time warning, should this function ever be called. */
    ALT_STUB_WARNING(write);
#endif

    switch (file) {
   11e0c:	00800044 	movi	r2,1
   11e10:	20800226 	beq	r4,r2,11e1c <write+0x10>
   11e14:	00800084 	movi	r2,2
   11e18:	2080041e 	bne	r4,r2,11e2c <write+0x20>
    case 1: /* stdout file descriptor */
        return ALT_DRIVER_WRITE(ALT_STDOUT_DEV, ptr, len, 0);
#endif /* ALT_STDOUT_PRESENT */
#ifdef ALT_STDERR_PRESENT
    case 2: /* stderr file descriptor */
        return ALT_DRIVER_WRITE(ALT_STDERR_DEV, ptr, len, 0);
   11e1c:	01000074 	movhi	r4,1
   11e20:	000f883a 	mov	r7,zero
   11e24:	2109a304 	addi	r4,r4,9868
   11e28:	0011e9c1 	jmpi	11e9c <altera_avalon_jtag_uart_write>
   11e2c:	d0a00c17 	ldw	r2,-32720(gp)
   11e30:	10000926 	beq	r2,zero,11e58 <write+0x4c>
 * Provide minimal version that just writes to the stdout/stderr devices
 * when provided.
 */

int ALT_WRITE (int file, const void *ptr, size_t len)
{
   11e34:	deffff04 	addi	sp,sp,-4
   11e38:	dfc00015 	stw	ra,0(sp)
   11e3c:	103ee83a 	callr	r2
#ifdef ALT_STDERR_PRESENT
    case 2: /* stderr file descriptor */
        return ALT_DRIVER_WRITE(ALT_STDERR_DEV, ptr, len, 0);
#endif /* ALT_STDERR_PRESENT */
    default:
        ALT_ERRNO = EBADFD;
   11e40:	00c01444 	movi	r3,81
   11e44:	10c00015 	stw	r3,0(r2)
        return -1;
    }
}
   11e48:	00bfffc4 	movi	r2,-1
   11e4c:	dfc00017 	ldw	ra,0(sp)
   11e50:	dec00104 	addi	sp,sp,4
   11e54:	f800283a 	ret
   11e58:	d0a07a04 	addi	r2,gp,-32280
#ifdef ALT_STDERR_PRESENT
    case 2: /* stderr file descriptor */
        return ALT_DRIVER_WRITE(ALT_STDERR_DEV, ptr, len, 0);
#endif /* ALT_STDERR_PRESENT */
    default:
        ALT_ERRNO = EBADFD;
   11e5c:	00c01444 	movi	r3,81
   11e60:	10c00015 	stw	r3,0(r2)
        return -1;
    }
}
   11e64:	00bfffc4 	movi	r2,-1
   11e68:	f800283a 	ret

00011e6c <alt_irq_init>:
 * The "base" parameter is ignored and only
 * present for backwards-compatibility.
 */

void alt_irq_init ( const void* base )
{
   11e6c:	deffff04 	addi	sp,sp,-4
   11e70:	dfc00015 	stw	ra,0(sp)
    ALTERA_NIOS2_GEN2_IRQ_INIT ( CPU, cpu);
   11e74:	00122940 	call	12294 <altera_nios2_gen2_irq_init>
 * alt_irq_cpu_enable_interrupts() enables the CPU to start taking interrupts.
 */
static ALT_INLINE void ALT_ALWAYS_INLINE 
       alt_irq_cpu_enable_interrupts (void)
{
    NIOS2_WRITE_STATUS(NIOS2_STATUS_PIE_MSK
   11e78:	00800044 	movi	r2,1
   11e7c:	1001703a 	wrctl	status,r2
    alt_irq_cpu_enable_interrupts();
}
   11e80:	dfc00017 	ldw	ra,0(sp)
   11e84:	dec00104 	addi	sp,sp,4
   11e88:	f800283a 	ret

00011e8c <alt_sys_init>:

static ALT_INLINE int alt_dev_reg (alt_dev* dev)
{
  extern alt_llist alt_dev_list;

  return alt_dev_llist_insert ((alt_dev_llist*) dev, &alt_dev_list);
   11e8c:	01000074 	movhi	r4,1
   11e90:	d1600804 	addi	r5,gp,-32736
   11e94:	21097c04 	addi	r4,r4,9712
   11e98:	00120c41 	jmpi	120c4 <alt_dev_llist_insert>

00011e9c <altera_avalon_jtag_uart_write>:
 */

int altera_avalon_jtag_uart_write(altera_avalon_jtag_uart_state* sp, 
  const char * ptr, int count, int flags)
{
  unsigned int base = sp->base;
   11e9c:	21000017 	ldw	r4,0(r4)
 * one FIFOs worth of data.  But you said you didn't want to use interrupts :-)
 */

int altera_avalon_jtag_uart_write(altera_avalon_jtag_uart_state* sp, 
  const char * ptr, int count, int flags)
{
   11ea0:	3005883a 	mov	r2,r6
  unsigned int base = sp->base;

  const char * end = ptr + count;
   11ea4:	298d883a 	add	r6,r5,r6

  while (ptr < end)
    if ((IORD_ALTERA_AVALON_JTAG_UART_CONTROL(base) & ALTERA_AVALON_JTAG_UART_CONTROL_WSPACE_MSK) != 0)
   11ea8:	21c00104 	addi	r7,r4,4
{
  unsigned int base = sp->base;

  const char * end = ptr + count;

  while (ptr < end)
   11eac:	2980072e 	bgeu	r5,r6,11ecc <altera_avalon_jtag_uart_write+0x30>
    if ((IORD_ALTERA_AVALON_JTAG_UART_CONTROL(base) & ALTERA_AVALON_JTAG_UART_CONTROL_WSPACE_MSK) != 0)
   11eb0:	38c00037 	ldwio	r3,0(r7)
   11eb4:	18ffffec 	andhi	r3,r3,65535
   11eb8:	183ffc26 	beq	r3,zero,11eac <__alt_data_end+0xffff1eac>
      IOWR_ALTERA_AVALON_JTAG_UART_DATA(base, *ptr++);
   11ebc:	28c00007 	ldb	r3,0(r5)
   11ec0:	20c00035 	stwio	r3,0(r4)
   11ec4:	29400044 	addi	r5,r5,1
   11ec8:	003ff806 	br	11eac <__alt_data_end+0xffff1eac>

  return count;
}
   11ecc:	f800283a 	ret

00011ed0 <alt_up_accelerometer_spi_open_dev>:
{
  // find the device from the device list 
  // (see altera_hal/HAL/inc/priv/alt_file.h 
  // and altera_hal/HAL/src/alt_find_dev.c 
  // for details)
  alt_up_accelerometer_spi_dev *dev = (alt_up_accelerometer_spi_dev*)alt_find_dev(name, &alt_dev_list);
   11ed0:	d1600804 	addi	r5,gp,-32736
   11ed4:	00121301 	jmpi	12130 <alt_find_dev>

00011ed8 <alt_up_accelerometer_spi_read_address_register>:
 * @return 0 for success 
 **/
int alt_up_accelerometer_spi_read_address_register(alt_up_accelerometer_spi_dev *accel_spi, alt_u8 *addr)
{
	// reads data from the device Address register
	*(addr) = IORD_ALT_UP_ACCELEROMETER_SPI_ADDRESS(accel_spi->base); 
   11ed8:	20800a17 	ldw	r2,40(r4)
   11edc:	10800023 	ldbuio	r2,0(r2)
   11ee0:	28800005 	stb	r2,0(r5)

	return 0;
}
   11ee4:	0005883a 	mov	r2,zero
   11ee8:	f800283a 	ret

00011eec <alt_up_accelerometer_spi_read>:
 * @return 0 for success
 **/
int alt_up_accelerometer_spi_read(alt_up_accelerometer_spi_dev *accel_spi, alt_u8 addr, alt_u8 *data)
{
	// set the register address in the Address register
	IOWR_ALT_UP_ACCELEROMETER_SPI_ADDRESS(accel_spi->base, addr & ALT_UP_ACCELEROMETER_SPI_ADDRESS_ADDR_MSK); 
   11eec:	20800a17 	ldw	r2,40(r4)
   11ef0:	29400fcc 	andi	r5,r5,63
   11ef4:	11400025 	stbio	r5,0(r2)

	// read data to the device Data register
	*(data) = IORD_ALT_UP_ACCELEROMETER_SPI_DATA(accel_spi->base) & ALT_UP_ACCELEROMETER_SPI_DATA_DATA_MSK;
   11ef8:	20800a17 	ldw	r2,40(r4)
   11efc:	10800063 	ldbuio	r2,1(r2)
   11f00:	30800005 	stb	r2,0(r6)

	return 0;
}
   11f04:	0005883a 	mov	r2,zero
   11f08:	f800283a 	ret

00011f0c <alt_up_accelerometer_spi_write>:
 * @return 0 for success
 **/
int alt_up_accelerometer_spi_write(alt_up_accelerometer_spi_dev *accel_spi, alt_u8 addr, alt_u8 data)
{
	// set the register address in the Address register
	IOWR_ALT_UP_ACCELEROMETER_SPI_ADDRESS(accel_spi->base, addr & ALT_UP_ACCELEROMETER_SPI_ADDRESS_ADDR_MSK); 
   11f0c:	20800a17 	ldw	r2,40(r4)
   11f10:	29400fcc 	andi	r5,r5,63
   11f14:	11400025 	stbio	r5,0(r2)

	// write data to the device Data register
	IOWR_ALT_UP_ACCELEROMETER_SPI_DATA(accel_spi->base, data & ALT_UP_ACCELEROMETER_SPI_DATA_DATA_MSK); 
   11f18:	20800a17 	ldw	r2,40(r4)
   11f1c:	11800065 	stbio	r6,1(r2)

	return 0;
}
   11f20:	0005883a 	mov	r2,zero
   11f24:	f800283a 	ret

00011f28 <alt_up_accelerometer_spi_read_x_axis>:
 * @return 0 for success or -1 for failure
 **/
int alt_up_accelerometer_spi_read_x_axis(alt_up_accelerometer_spi_dev *accel_spi, alt_32 *x_axis)
{
	// set the register address in the Address register
	IOWR_ALT_UP_ACCELEROMETER_SPI_ADDRESS(accel_spi->base, ACCELEROMETER_SPI_X_AXIS_LOWER_BYTE & ALT_UP_ACCELEROMETER_SPI_ADDRESS_ADDR_MSK); 
   11f28:	20800a17 	ldw	r2,40(r4)
   11f2c:	00c00c84 	movi	r3,50
   11f30:	10c00025 	stbio	r3,0(r2)

	// read data to the device Data register
	*(x_axis) = IORD_ALT_UP_ACCELEROMETER_SPI_DATA(accel_spi->base) & ALT_UP_ACCELEROMETER_SPI_DATA_DATA_MSK;
   11f34:	20800a17 	ldw	r2,40(r4)
   11f38:	10800063 	ldbuio	r2,1(r2)

	// set the register address in the Address register
	IOWR_ALT_UP_ACCELEROMETER_SPI_ADDRESS(accel_spi->base, ACCELEROMETER_SPI_X_AXIS_UPPER_BYTE & ALT_UP_ACCELEROMETER_SPI_ADDRESS_ADDR_MSK); 
   11f3c:	00c00cc4 	movi	r3,51
{
	// set the register address in the Address register
	IOWR_ALT_UP_ACCELEROMETER_SPI_ADDRESS(accel_spi->base, ACCELEROMETER_SPI_X_AXIS_LOWER_BYTE & ALT_UP_ACCELEROMETER_SPI_ADDRESS_ADDR_MSK); 

	// read data to the device Data register
	*(x_axis) = IORD_ALT_UP_ACCELEROMETER_SPI_DATA(accel_spi->base) & ALT_UP_ACCELEROMETER_SPI_DATA_DATA_MSK;
   11f40:	10803fcc 	andi	r2,r2,255
   11f44:	28800015 	stw	r2,0(r5)

	// set the register address in the Address register
	IOWR_ALT_UP_ACCELEROMETER_SPI_ADDRESS(accel_spi->base, ACCELEROMETER_SPI_X_AXIS_UPPER_BYTE & ALT_UP_ACCELEROMETER_SPI_ADDRESS_ADDR_MSK); 
   11f48:	20800a17 	ldw	r2,40(r4)
   11f4c:	10c00025 	stbio	r3,0(r2)

	// read data to the device Data register
	*(x_axis) += (IORD_ALT_UP_ACCELEROMETER_SPI_DATA(accel_spi->base) & ALT_UP_ACCELEROMETER_SPI_DATA_DATA_MSK) << 8;
   11f50:	20800a17 	ldw	r2,40(r4)
   11f54:	10800063 	ldbuio	r2,1(r2)
   11f58:	10803fcc 	andi	r2,r2,255
   11f5c:	1006923a 	slli	r3,r2,8
   11f60:	28800017 	ldw	r2,0(r5)
   11f64:	1885883a 	add	r2,r3,r2

	if (*(x_axis) & 0x00008000)
   11f68:	10e0000c 	andi	r3,r2,32768
   11f6c:	18000126 	beq	r3,zero,11f74 <alt_up_accelerometer_spi_read_x_axis+0x4c>
	{
		*(x_axis) |= 0xFFFF0000;
   11f70:	10bffff4 	orhi	r2,r2,65535
   11f74:	28800015 	stw	r2,0(r5)
	}

	return 0;
}
   11f78:	0005883a 	mov	r2,zero
   11f7c:	f800283a 	ret

00011f80 <alt_up_accelerometer_spi_read_y_axis>:
 * @return 0 for success or -1 for failure
 **/
int alt_up_accelerometer_spi_read_y_axis(alt_up_accelerometer_spi_dev *accel_spi, alt_32 *y_axis)
{
	// set the register address in the Address register
	IOWR_ALT_UP_ACCELEROMETER_SPI_ADDRESS(accel_spi->base, ACCELEROMETER_SPI_Y_AXIS_LOWER_BYTE & ALT_UP_ACCELEROMETER_SPI_ADDRESS_ADDR_MSK); 
   11f80:	20800a17 	ldw	r2,40(r4)
   11f84:	00c00d04 	movi	r3,52
   11f88:	10c00025 	stbio	r3,0(r2)

	// read data to the device Data register
	*(y_axis) = IORD_ALT_UP_ACCELEROMETER_SPI_DATA(accel_spi->base) & ALT_UP_ACCELEROMETER_SPI_DATA_DATA_MSK;
   11f8c:	20800a17 	ldw	r2,40(r4)
   11f90:	10800063 	ldbuio	r2,1(r2)

	// set the register address in the Address register
	IOWR_ALT_UP_ACCELEROMETER_SPI_ADDRESS(accel_spi->base, ACCELEROMETER_SPI_Y_AXIS_UPPER_BYTE & ALT_UP_ACCELEROMETER_SPI_ADDRESS_ADDR_MSK); 
   11f94:	00c00d44 	movi	r3,53
{
	// set the register address in the Address register
	IOWR_ALT_UP_ACCELEROMETER_SPI_ADDRESS(accel_spi->base, ACCELEROMETER_SPI_Y_AXIS_LOWER_BYTE & ALT_UP_ACCELEROMETER_SPI_ADDRESS_ADDR_MSK); 

	// read data to the device Data register
	*(y_axis) = IORD_ALT_UP_ACCELEROMETER_SPI_DATA(accel_spi->base) & ALT_UP_ACCELEROMETER_SPI_DATA_DATA_MSK;
   11f98:	10803fcc 	andi	r2,r2,255
   11f9c:	28800015 	stw	r2,0(r5)

	// set the register address in the Address register
	IOWR_ALT_UP_ACCELEROMETER_SPI_ADDRESS(accel_spi->base, ACCELEROMETER_SPI_Y_AXIS_UPPER_BYTE & ALT_UP_ACCELEROMETER_SPI_ADDRESS_ADDR_MSK); 
   11fa0:	20800a17 	ldw	r2,40(r4)
   11fa4:	10c00025 	stbio	r3,0(r2)

	// read data to the device Data register
	*(y_axis) += (IORD_ALT_UP_ACCELEROMETER_SPI_DATA(accel_spi->base) & ALT_UP_ACCELEROMETER_SPI_DATA_DATA_MSK) << 8;
   11fa8:	20800a17 	ldw	r2,40(r4)
   11fac:	10800063 	ldbuio	r2,1(r2)
   11fb0:	10803fcc 	andi	r2,r2,255
   11fb4:	1006923a 	slli	r3,r2,8
   11fb8:	28800017 	ldw	r2,0(r5)
   11fbc:	1885883a 	add	r2,r3,r2

	if (*(y_axis) & 0x00008000)
   11fc0:	10e0000c 	andi	r3,r2,32768
   11fc4:	18000126 	beq	r3,zero,11fcc <alt_up_accelerometer_spi_read_y_axis+0x4c>
	{
		*(y_axis) |= 0xFFFF0000;
   11fc8:	10bffff4 	orhi	r2,r2,65535
   11fcc:	28800015 	stw	r2,0(r5)
	}

	return 0;
}
   11fd0:	0005883a 	mov	r2,zero
   11fd4:	f800283a 	ret

00011fd8 <alt_up_accelerometer_spi_read_z_axis>:
 * @return 0 for success or -1 for failure
 **/
int alt_up_accelerometer_spi_read_z_axis(alt_up_accelerometer_spi_dev *accel_spi, alt_32 *z_axis)
{
	// set the register address in the Address register
	IOWR_ALT_UP_ACCELEROMETER_SPI_ADDRESS(accel_spi->base, ACCELEROMETER_SPI_Z_AXIS_LOWER_BYTE & ALT_UP_ACCELEROMETER_SPI_ADDRESS_ADDR_MSK); 
   11fd8:	20800a17 	ldw	r2,40(r4)
   11fdc:	00c00d84 	movi	r3,54
   11fe0:	10c00025 	stbio	r3,0(r2)

	// read data to the device Data register
	*(z_axis) = IORD_ALT_UP_ACCELEROMETER_SPI_DATA(accel_spi->base) & ALT_UP_ACCELEROMETER_SPI_DATA_DATA_MSK;
   11fe4:	20800a17 	ldw	r2,40(r4)
   11fe8:	10800063 	ldbuio	r2,1(r2)

	// set the register address in the Address register
	IOWR_ALT_UP_ACCELEROMETER_SPI_ADDRESS(accel_spi->base, ACCELEROMETER_SPI_Z_AXIS_UPPER_BYTE & ALT_UP_ACCELEROMETER_SPI_ADDRESS_ADDR_MSK); 
   11fec:	00c00dc4 	movi	r3,55
{
	// set the register address in the Address register
	IOWR_ALT_UP_ACCELEROMETER_SPI_ADDRESS(accel_spi->base, ACCELEROMETER_SPI_Z_AXIS_LOWER_BYTE & ALT_UP_ACCELEROMETER_SPI_ADDRESS_ADDR_MSK); 

	// read data to the device Data register
	*(z_axis) = IORD_ALT_UP_ACCELEROMETER_SPI_DATA(accel_spi->base) & ALT_UP_ACCELEROMETER_SPI_DATA_DATA_MSK;
   11ff0:	10803fcc 	andi	r2,r2,255
   11ff4:	28800015 	stw	r2,0(r5)

	// set the register address in the Address register
	IOWR_ALT_UP_ACCELEROMETER_SPI_ADDRESS(accel_spi->base, ACCELEROMETER_SPI_Z_AXIS_UPPER_BYTE & ALT_UP_ACCELEROMETER_SPI_ADDRESS_ADDR_MSK); 
   11ff8:	20800a17 	ldw	r2,40(r4)
   11ffc:	10c00025 	stbio	r3,0(r2)

	// read data to the device Data register
	*(z_axis) += (IORD_ALT_UP_ACCELEROMETER_SPI_DATA(accel_spi->base) & ALT_UP_ACCELEROMETER_SPI_DATA_DATA_MSK) << 8;
   12000:	20800a17 	ldw	r2,40(r4)
   12004:	10800063 	ldbuio	r2,1(r2)
   12008:	10803fcc 	andi	r2,r2,255
   1200c:	1006923a 	slli	r3,r2,8
   12010:	28800017 	ldw	r2,0(r5)
   12014:	1885883a 	add	r2,r3,r2

	if (*(z_axis) & 0x00008000)
   12018:	10e0000c 	andi	r3,r2,32768
   1201c:	18000126 	beq	r3,zero,12024 <alt_up_accelerometer_spi_read_z_axis+0x4c>
	{
		*(z_axis) |= 0xFFFF0000;
   12020:	10bffff4 	orhi	r2,r2,65535
   12024:	28800015 	stw	r2,0(r5)
	}

	return 0;
}
   12028:	0005883a 	mov	r2,zero
   1202c:	f800283a 	ret

00012030 <alt_busy_sleep>:
  {
    cycles_per_loop = 3;
  }
  

  big_loops = us / (INT_MAX/
   12030:	014666b4 	movhi	r5,6554
#include "alt_types.h"

#include "priv/alt_busy_sleep.h"

unsigned int alt_busy_sleep (unsigned int us)
{
   12034:	defffe04 	addi	sp,sp,-8
  {
    cycles_per_loop = 3;
  }
  

  big_loops = us / (INT_MAX/
   12038:	29666644 	addi	r5,r5,-26215
#include "alt_types.h"

#include "priv/alt_busy_sleep.h"

unsigned int alt_busy_sleep (unsigned int us)
{
   1203c:	dc000015 	stw	r16,0(sp)
   12040:	dfc00115 	stw	ra,4(sp)
   12044:	2021883a 	mov	r16,r4
  {
    cycles_per_loop = 3;
  }
  

  big_loops = us / (INT_MAX/
   12048:	0011b4c0 	call	11b4c <__udivsi3>
  (ALT_CPU_FREQ/(cycles_per_loop * 1000000)));

  if (big_loops)
   1204c:	10001026 	beq	r2,zero,12090 <alt_busy_sleep+0x60>
      /*
      * Do NOT Try to single step the asm statement below 
      * (single step will never return)
      * Step out of this function or set a breakpoint after the asm statements
      */
      __asm__ volatile (
   12050:	01600034 	movhi	r5,32768
        "\n1:"
        "\n\t.pushsection .debug_alt_sim_info"
        "\n\t.int 4, 0, 0b, 1b"
        "\n\t.popsection"
        :: "r" (INT_MAX));
      us -= (INT_MAX/(ALT_CPU_FREQ/
   12054:	013999b4 	movhi	r4,58982
   12058:	0007883a 	mov	r3,zero
      /*
      * Do NOT Try to single step the asm statement below 
      * (single step will never return)
      * Step out of this function or set a breakpoint after the asm statements
      */
      __asm__ volatile (
   1205c:	297fffc4 	addi	r5,r5,-1
        "\n1:"
        "\n\t.pushsection .debug_alt_sim_info"
        "\n\t.int 4, 0, 0b, 1b"
        "\n\t.popsection"
        :: "r" (INT_MAX));
      us -= (INT_MAX/(ALT_CPU_FREQ/
   12060:	211999c4 	addi	r4,r4,26215
      /*
      * Do NOT Try to single step the asm statement below 
      * (single step will never return)
      * Step out of this function or set a breakpoint after the asm statements
      */
      __asm__ volatile (
   12064:	297fffc4 	addi	r5,r5,-1
   12068:	283ffe1e 	bne	r5,zero,12064 <__alt_data_end+0xffff2064>
  big_loops = us / (INT_MAX/
  (ALT_CPU_FREQ/(cycles_per_loop * 1000000)));

  if (big_loops)
  {
    for(i=0;i<big_loops;i++)
   1206c:	18c00044 	addi	r3,r3,1
        "\n1:"
        "\n\t.pushsection .debug_alt_sim_info"
        "\n\t.int 4, 0, 0b, 1b"
        "\n\t.popsection"
        :: "r" (INT_MAX));
      us -= (INT_MAX/(ALT_CPU_FREQ/
   12070:	8121883a 	add	r16,r16,r4
  big_loops = us / (INT_MAX/
  (ALT_CPU_FREQ/(cycles_per_loop * 1000000)));

  if (big_loops)
  {
    for(i=0;i<big_loops;i++)
   12074:	18bffb16 	blt	r3,r2,12064 <__alt_data_end+0xffff2064>
    /*
    * Do NOT Try to single step the asm statement below 
    * (single step will never return)
    * Step out of this function or set a breakpoint after the asm statements
    */
    __asm__ volatile (
   12078:	01400144 	movi	r5,5
   1207c:	8009883a 	mov	r4,r16
   12080:	00111d40 	call	111d4 <__mulsi3>
   12084:	10bfffc4 	addi	r2,r2,-1
   12088:	103ffe1e 	bne	r2,zero,12084 <__alt_data_end+0xffff2084>
   1208c:	00000506 	br	120a4 <alt_busy_sleep+0x74>
    /*
    * Do NOT Try to single step the asm statement below 
    * (single step will never return)
    * Step out of this function or set a breakpoint after the asm statements
    */
    __asm__ volatile (
   12090:	01400144 	movi	r5,5
   12094:	8009883a 	mov	r4,r16
   12098:	00111d40 	call	111d4 <__mulsi3>
   1209c:	10bfffc4 	addi	r2,r2,-1
   120a0:	00bffe16 	blt	zero,r2,1209c <__alt_data_end+0xffff209c>
      "\n\t.popsection"
      :: "r" (us*(ALT_CPU_FREQ/(cycles_per_loop * 1000000))));
  }
#endif /* #ifndef ALT_SIM_OPTIMIZE */
  return 0;
}
   120a4:	0005883a 	mov	r2,zero
   120a8:	dfc00117 	ldw	ra,4(sp)
   120ac:	dc000017 	ldw	r16,0(sp)
   120b0:	dec00204 	addi	sp,sp,8
   120b4:	f800283a 	ret

000120b8 <alt_dcache_flush_all>:
/*
 * alt_dcache_flush_all() is called to flush the entire data cache.
 */

void alt_dcache_flush_all (void)
{
   120b8:	f800283a 	ret

000120bc <alt_dev_null_write>:
 */

static int alt_dev_null_write (alt_fd* fd, const char* ptr, int len)
{
  return len;
}
   120bc:	3005883a 	mov	r2,r6
   120c0:	f800283a 	ret

000120c4 <alt_dev_llist_insert>:
{
  /*
   * check that the device exists, and that it has a valid name.
   */

  if (!dev || !dev->name)
   120c4:	20000226 	beq	r4,zero,120d0 <alt_dev_llist_insert+0xc>
   120c8:	20800217 	ldw	r2,8(r4)
   120cc:	1000101e 	bne	r2,zero,12110 <alt_dev_llist_insert+0x4c>
   120d0:	d0a00c17 	ldw	r2,-32720(gp)
   120d4:	10000926 	beq	r2,zero,120fc <alt_dev_llist_insert+0x38>
/*
 *
 */

int alt_dev_llist_insert (alt_dev_llist* dev, alt_llist* list)
{
   120d8:	deffff04 	addi	sp,sp,-4
   120dc:	dfc00015 	stw	ra,0(sp)
   120e0:	103ee83a 	callr	r2
   * check that the device exists, and that it has a valid name.
   */

  if (!dev || !dev->name)
  {
    ALT_ERRNO = EINVAL;
   120e4:	00c00584 	movi	r3,22
   120e8:	10c00015 	stw	r3,0(r2)
    return -EINVAL;
   120ec:	00bffa84 	movi	r2,-22
   */
  
  alt_llist_insert(list, &dev->llist);

  return 0;  
}
   120f0:	dfc00017 	ldw	ra,0(sp)
   120f4:	dec00104 	addi	sp,sp,4
   120f8:	f800283a 	ret
   120fc:	d0a07a04 	addi	r2,gp,-32280
   * check that the device exists, and that it has a valid name.
   */

  if (!dev || !dev->name)
  {
    ALT_ERRNO = EINVAL;
   12100:	00c00584 	movi	r3,22
   12104:	10c00015 	stw	r3,0(r2)
    return -EINVAL;
   12108:	00bffa84 	movi	r2,-22
   */
  
  alt_llist_insert(list, &dev->llist);

  return 0;  
}
   1210c:	f800283a 	ret

static ALT_INLINE void ALT_ALWAYS_INLINE alt_llist_insert(alt_llist* list, 
                alt_llist* entry)
{
  entry->previous = list;
  entry->next     = list->next;
   12110:	28800017 	ldw	r2,0(r5)
 */

static ALT_INLINE void ALT_ALWAYS_INLINE alt_llist_insert(alt_llist* list, 
                alt_llist* entry)
{
  entry->previous = list;
   12114:	21400115 	stw	r5,4(r4)
  entry->next     = list->next;
   12118:	20800015 	stw	r2,0(r4)

  list->next->previous = entry;
   1211c:	28800017 	ldw	r2,0(r5)
   12120:	11000115 	stw	r4,4(r2)
  list->next           = entry;
   12124:	29000015 	stw	r4,0(r5)
   * register the device.
   */
  
  alt_llist_insert(list, &dev->llist);

  return 0;  
   12128:	0005883a 	mov	r2,zero
   1212c:	f800283a 	ret

00012130 <alt_find_dev>:
 * "name" must be an exact match for the devices registered name for a match to
 * be found.
 */
 
alt_dev* alt_find_dev(const char* name, alt_llist* llist)
{
   12130:	defffb04 	addi	sp,sp,-20
   12134:	dcc00315 	stw	r19,12(sp)
   12138:	dc800215 	stw	r18,8(sp)
   1213c:	dc400115 	stw	r17,4(sp)
   12140:	dc000015 	stw	r16,0(sp)
   12144:	dfc00415 	stw	ra,16(sp)
   12148:	2027883a 	mov	r19,r4
   1214c:	2823883a 	mov	r17,r5
  alt_dev* next = (alt_dev*) llist->next;
   12150:	2c000017 	ldw	r16,0(r5)
  alt_32 len;

  len  = strlen(name) + 1;
   12154:	00113740 	call	11374 <strlen>
   12158:	14800044 	addi	r18,r2,1
  /*
   * Check each list entry in turn, until a match is found, or we reach the
   * end of the list (i.e. next winds up pointing back to the list head).
   */ 

  while (next != (alt_dev*) llist)
   1215c:	84400726 	beq	r16,r17,1217c <alt_find_dev+0x4c>
    /* 
     * memcmp() is used here rather than strcmp() in order to reduce the size
     * of the executable.
     */

    if (!memcmp (next->name, name, len))
   12160:	81000217 	ldw	r4,8(r16)
   12164:	900d883a 	mov	r6,r18
   12168:	980b883a 	mov	r5,r19
   1216c:	00123100 	call	12310 <memcmp>
   12170:	10000426 	beq	r2,zero,12184 <alt_find_dev+0x54>
    {
      /* match found */

      return next;
    }
    next = (alt_dev*) next->llist.next;
   12174:	84000017 	ldw	r16,0(r16)
   12178:	003ff806 	br	1215c <__alt_data_end+0xffff215c>
  }
  
  /* No match found */
  
  return NULL;
   1217c:	0005883a 	mov	r2,zero
   12180:	00000106 	br	12188 <alt_find_dev+0x58>
   12184:	8005883a 	mov	r2,r16
}
   12188:	dfc00417 	ldw	ra,16(sp)
   1218c:	dcc00317 	ldw	r19,12(sp)
   12190:	dc800217 	ldw	r18,8(sp)
   12194:	dc400117 	ldw	r17,4(sp)
   12198:	dc000017 	ldw	r16,0(sp)
   1219c:	dec00504 	addi	sp,sp,20
   121a0:	f800283a 	ret

000121a4 <alt_icache_flush_all>:
/*
 * alt_icache_flush_all() is called to flush the entire instruction cache.
 */

void alt_icache_flush_all (void)
{
   121a4:	f800283a 	ret

000121a8 <alt_alarm_stop>:
static ALT_INLINE alt_irq_context ALT_ALWAYS_INLINE 
       alt_irq_disable_all (void)
{
  alt_irq_context context;

  NIOS2_READ_STATUS (context);
   121a8:	0007303a 	rdctl	r3,status

  NIOS2_WRITE_STATUS (context & ~NIOS2_STATUS_PIE_MSK);
   121ac:	00bfff84 	movi	r2,-2
   121b0:	1884703a 	and	r2,r3,r2
   121b4:	1001703a 	wrctl	status,r2
 * input argument is the element to remove.
 */
     
static ALT_INLINE void ALT_ALWAYS_INLINE alt_llist_remove(alt_llist* entry)
{
  entry->next->previous = entry->previous;
   121b8:	21400117 	ldw	r5,4(r4)
   121bc:	20800017 	ldw	r2,0(r4)
   121c0:	11400115 	stw	r5,4(r2)
  entry->previous->next = entry->next;
   121c4:	21400117 	ldw	r5,4(r4)
   121c8:	28800015 	stw	r2,0(r5)
  /* 
   * Set the entry to point to itself, so that any further calls to
   * alt_llist_remove() are harmless.
   */

  entry->previous = entry;
   121cc:	21000115 	stw	r4,4(r4)
  entry->next     = entry;
   121d0:	21000015 	stw	r4,0(r4)
  status &= ~NIOS2_STATUS_PIE_MSK;
  status |= (context & NIOS2_STATUS_PIE_MSK);
  
  NIOS2_WRITE_STATUS (status);
#else
  NIOS2_WRITE_STATUS (context);
   121d4:	1801703a 	wrctl	status,r3
   121d8:	f800283a 	ret

000121dc <alt_tick>:

  alt_u32    next_callback;

  /* update the tick counter */

  _alt_nticks++;
   121dc:	d0a07f17 	ldw	r2,-32260(gp)
 * 
 * alt_tick() is expected to run at interrupt level.
 */

void alt_tick (void)
{
   121e0:	defffb04 	addi	sp,sp,-20
   121e4:	dc000015 	stw	r16,0(sp)
  alt_alarm* next;
  alt_alarm* alarm = (alt_alarm*) alt_alarm_list.next;
   121e8:	d4200d17 	ldw	r16,-32716(gp)

  alt_u32    next_callback;

  /* update the tick counter */

  _alt_nticks++;
   121ec:	10800044 	addi	r2,r2,1
 * 
 * alt_tick() is expected to run at interrupt level.
 */

void alt_tick (void)
{
   121f0:	dc800215 	stw	r18,8(sp)
   121f4:	dc400115 	stw	r17,4(sp)
   121f8:	dfc00415 	stw	ra,16(sp)
   121fc:	dcc00315 	stw	r19,12(sp)

  alt_u32    next_callback;

  /* update the tick counter */

  _alt_nticks++;
   12200:	d0a07f15 	stw	r2,-32260(gp)

  /* process the registered callbacks */

  while (alarm != (alt_alarm*) &alt_alarm_list)
   12204:	d4600d04 	addi	r17,gp,-32716
         * flag. This will prevent the subsequent tick event from causing
         * an alarm too early.
         */
        if(alarm->time < _alt_nticks)
        {
          alarm->rollover = 1;
   12208:	04800044 	movi	r18,1

  _alt_nticks++;

  /* process the registered callbacks */

  while (alarm != (alt_alarm*) &alt_alarm_list)
   1220c:	84401a26 	beq	r16,r17,12278 <alt_tick+0x9c>
    /* 
     * Upon the tick-counter rolling over it is safe to clear the 
     * roll-over flag; once the flag is cleared this (or subsequnt)
     * tick events are enabled to generate an alarm event. 
     */
    if ((alarm->rollover) && (_alt_nticks == 0))
   12210:	80800403 	ldbu	r2,16(r16)

  /* process the registered callbacks */

  while (alarm != (alt_alarm*) &alt_alarm_list)
  {
    next = (alt_alarm*) alarm->llist.next;
   12214:	84c00017 	ldw	r19,0(r16)
    /* 
     * Upon the tick-counter rolling over it is safe to clear the 
     * roll-over flag; once the flag is cleared this (or subsequnt)
     * tick events are enabled to generate an alarm event. 
     */
    if ((alarm->rollover) && (_alt_nticks == 0))
   12218:	10000326 	beq	r2,zero,12228 <alt_tick+0x4c>
   1221c:	d0a07f17 	ldw	r2,-32260(gp)
   12220:	1000011e 	bne	r2,zero,12228 <alt_tick+0x4c>
    {
      alarm->rollover = 0;
   12224:	80000405 	stb	zero,16(r16)
    }
    
    /* if the alarm period has expired, make the callback */    
    if ((alarm->time <= _alt_nticks) && (alarm->rollover == 0))
   12228:	d0e07f17 	ldw	r3,-32260(gp)
   1222c:	80800217 	ldw	r2,8(r16)
   12230:	18800f36 	bltu	r3,r2,12270 <alt_tick+0x94>
   12234:	80800403 	ldbu	r2,16(r16)
   12238:	10000d1e 	bne	r2,zero,12270 <alt_tick+0x94>
    {
      next_callback = alarm->callback (alarm->context);
   1223c:	80800317 	ldw	r2,12(r16)
   12240:	81000517 	ldw	r4,20(r16)
   12244:	103ee83a 	callr	r2

      /* deactivate the alarm if the return value is zero */

      if (next_callback == 0)
   12248:	1000031e 	bne	r2,zero,12258 <alt_tick+0x7c>
      {
        alt_alarm_stop (alarm);
   1224c:	8009883a 	mov	r4,r16
   12250:	00121a80 	call	121a8 <alt_alarm_stop>
   12254:	00000606 	br	12270 <alt_tick+0x94>
      }
      else
      {
        alarm->time += next_callback;
   12258:	80c00217 	ldw	r3,8(r16)
   1225c:	10c5883a 	add	r2,r2,r3
        /* 
         * If the desired alarm time causes a roll-over, set the rollover
         * flag. This will prevent the subsequent tick event from causing
         * an alarm too early.
         */
        if(alarm->time < _alt_nticks)
   12260:	d0e07f17 	ldw	r3,-32260(gp)
      {
        alt_alarm_stop (alarm);
      }
      else
      {
        alarm->time += next_callback;
   12264:	80800215 	stw	r2,8(r16)
        /* 
         * If the desired alarm time causes a roll-over, set the rollover
         * flag. This will prevent the subsequent tick event from causing
         * an alarm too early.
         */
        if(alarm->time < _alt_nticks)
   12268:	10c0012e 	bgeu	r2,r3,12270 <alt_tick+0x94>
        {
          alarm->rollover = 1;
   1226c:	84800405 	stb	r18,16(r16)
 * 
 * alt_tick() is expected to run at interrupt level.
 */

void alt_tick (void)
{
   12270:	9821883a 	mov	r16,r19
   12274:	003fe506 	br	1220c <__alt_data_end+0xffff220c>
  /* 
   * Update the operating system specific timer facilities.
   */

  ALT_OS_TIME_TICK();
}
   12278:	dfc00417 	ldw	ra,16(sp)
   1227c:	dcc00317 	ldw	r19,12(sp)
   12280:	dc800217 	ldw	r18,8(sp)
   12284:	dc400117 	ldw	r17,4(sp)
   12288:	dc000017 	ldw	r16,0(sp)
   1228c:	dec00504 	addi	sp,sp,20
   12290:	f800283a 	ret

00012294 <altera_nios2_gen2_irq_init>:
 * To initialize the internal interrupt controller, just clear the IENABLE
 * register so that all possible IRQs are disabled.
 */
void altera_nios2_gen2_irq_init(void) 
{
    NIOS2_WRITE_IENABLE(0);
   12294:	000170fa 	wrctl	ienable,zero
   12298:	f800283a 	ret

0001229c <alt_exception_cause_generated_bad_addr>:
 *         0: BADADDR is not valid
 */
int 
alt_exception_cause_generated_bad_addr(alt_exception_cause cause)
{
  switch (cause) {
   1229c:	213ffe84 	addi	r4,r4,-6
   122a0:	008003c4 	movi	r2,15
   122a4:	11001636 	bltu	r2,r4,12300 <alt_exception_cause_generated_bad_addr+0x64>
   122a8:	200890ba 	slli	r4,r4,2
   122ac:	00800074 	movhi	r2,1
   122b0:	1088b004 	addi	r2,r2,8896
   122b4:	2089883a 	add	r4,r4,r2
   122b8:	20800017 	ldw	r2,0(r4)
   122bc:	1000683a 	jmp	r2
   122c0:	00012308 	cmpgei	zero,zero,1164
   122c4:	00012308 	cmpgei	zero,zero,1164
   122c8:	00012300 	call	1230 <__alt_mem_onchip_memory-0xedd0>
   122cc:	00012300 	call	1230 <__alt_mem_onchip_memory-0xedd0>
   122d0:	00012300 	call	1230 <__alt_mem_onchip_memory-0xedd0>
   122d4:	00012308 	cmpgei	zero,zero,1164
   122d8:	00012300 	call	1230 <__alt_mem_onchip_memory-0xedd0>
   122dc:	00012300 	call	1230 <__alt_mem_onchip_memory-0xedd0>
   122e0:	00012308 	cmpgei	zero,zero,1164
   122e4:	00012308 	cmpgei	zero,zero,1164
   122e8:	00012300 	call	1230 <__alt_mem_onchip_memory-0xedd0>
   122ec:	00012308 	cmpgei	zero,zero,1164
   122f0:	00012300 	call	1230 <__alt_mem_onchip_memory-0xedd0>
   122f4:	00012300 	call	1230 <__alt_mem_onchip_memory-0xedd0>
   122f8:	00012300 	call	1230 <__alt_mem_onchip_memory-0xedd0>
   122fc:	00012308 	cmpgei	zero,zero,1164
  case NIOS2_EXCEPTION_ECC_DATA_ERR:
    return 1;

  case NIOS2_EXCEPTION_TLB_MISS:
  case NIOS2_EXCEPTION_ECC_TLB_ERR:
    return 0;
   12300:	0005883a 	mov	r2,zero
   12304:	f800283a 	ret
  case NIOS2_EXCEPTION_MISALIGNED_TARGET_PC:
  case NIOS2_EXCEPTION_TLB_READ_PERM_VIOLATION:
  case NIOS2_EXCEPTION_TLB_WRITE_PERM_VIOLATION:
  case NIOS2_EXCEPTION_MPU_DATA_REGION_VIOLATION:
  case NIOS2_EXCEPTION_ECC_DATA_ERR:
    return 1;
   12308:	00800044 	movi	r2,1
    return 0;

  default:
    return 0;
  }
}
   1230c:	f800283a 	ret

00012310 <memcmp>:
   12310:	218d883a 	add	r6,r4,r6
   12314:	21800826 	beq	r4,r6,12338 <memcmp+0x28>
   12318:	20800003 	ldbu	r2,0(r4)
   1231c:	28c00003 	ldbu	r3,0(r5)
   12320:	10c00226 	beq	r2,r3,1232c <memcmp+0x1c>
   12324:	10c5c83a 	sub	r2,r2,r3
   12328:	f800283a 	ret
   1232c:	21000044 	addi	r4,r4,1
   12330:	29400044 	addi	r5,r5,1
   12334:	003ff706 	br	12314 <__alt_data_end+0xffff2314>
   12338:	0005883a 	mov	r2,zero
   1233c:	f800283a 	ret
